	.cpu cortex-a9
	.eabi_attribute 27, 3
	.fpu neon
	.eabi_attribute 20, 1
	.eabi_attribute 21, 1
	.eabi_attribute 23, 3
	.eabi_attribute 24, 1
	.eabi_attribute 25, 1
	.eabi_attribute 26, 1
	.eabi_attribute 30, 1
	.eabi_attribute 18, 4
	.file	"ui_BTAUDIO.c"
	.text
.Ltext0:
	.cfi_sections	.debug_frame
	.align	2
	.global	ui_BTAUDIO_Dtor
	.type	ui_BTAUDIO_Dtor, %function
ui_BTAUDIO_Dtor:
	.fnstart
.LFB1:
	.file 1 "ui_BTAUDIO.c"
	.loc 1 201 0
	.cfi_startproc
	@ args = 0, pretend = 0, frame = 0
	@ frame_needed = 0, uses_anonymous_args = 0
	@ link register save eliminated.
.LVL0:
	.loc 1 203 0
	bx	lr
	.cfi_endproc
.LFE1:
	.fnend
	.size	ui_BTAUDIO_Dtor, .-ui_BTAUDIO_Dtor
	.align	2
	.type	ui_BTAUDIO_ClassInit, %function
ui_BTAUDIO_ClassInit:
	.fnstart
.LFB2:
	.loc 1 206 0
	.cfi_startproc
	@ args = 0, pretend = 0, frame = 0
	@ frame_needed = 0, uses_anonymous_args = 0
	@ link register save eliminated.
.LVL1:
	.loc 1 209 0
	bx	lr
	.cfi_endproc
.LFE2:
	.fnend
	.size	ui_BTAUDIO_ClassInit, .-ui_BTAUDIO_ClassInit
	.align	2
	.type	ui_BTAUDIO_BaseClassInit, %function
ui_BTAUDIO_BaseClassInit:
	.fnstart
.LFB3:
	.loc 1 211 0
	.cfi_startproc
	@ args = 0, pretend = 0, frame = 0
	@ frame_needed = 0, uses_anonymous_args = 0
	@ link register save eliminated.
.LVL2:
	.loc 1 211 0
	movw	r3, #:lower16:ui_BTAUDIO_Ctor
	movt	r3, #:upper16:ui_BTAUDIO_Ctor
	str	r3, [r0, #0]
	movw	r3, #:lower16:ui_BTAUDIO_Dtor
	movt	r3, #:upper16:ui_BTAUDIO_Dtor
	str	r3, [r0, #4]
	mov	r3, #0
	str	r3, [r0, #8]
	str	r3, [r0, #12]
	mov	r3, #196	@ movhi
	strh	r3, [r0, #28]	@ movhi
	bx	lr
	.cfi_endproc
.LFE3:
	.fnend
	.size	ui_BTAUDIO_BaseClassInit, .-ui_BTAUDIO_BaseClassInit
	.align	2
	.global	ui_BTAUDIO_GetType
	.type	ui_BTAUDIO_GetType, %function
ui_BTAUDIO_GetType:
	.fnstart
.LFB4:
	.loc 1 211 0
	.cfi_startproc
	@ args = 0, pretend = 0, frame = 0
	@ frame_needed = 0, uses_anonymous_args = 0
	stmfd	sp!, {r3, lr}
	.save {r3, lr}
.LCFI0:
	.cfi_def_cfa_offset 8
	.loc 1 211 0
	movw	r3, #:lower16:.LANCHOR0
	.cfi_offset 14, -4
	.cfi_offset 3, -8
	movt	r3, #:upper16:.LANCHOR0
	ldrh	r3, [r3, #0]
	cmp	r3, #0
	bne	.L8
	bl	NGDAView_GetType
	mov	r1, r0
	movw	r0, #:lower16:.LANCHOR1
	movt	r0, #:upper16:.LANCHOR1
	bl	NGType_RegisterObjectType
	movw	r3, #:lower16:.LANCHOR0
	movt	r3, #:upper16:.LANCHOR0
	strh	r0, [r3, #0]	@ movhi
.L8:
	movw	r3, #:lower16:.LANCHOR0
	movt	r3, #:upper16:.LANCHOR0
	ldrh	r0, [r3, #0]
	ldmfd	sp!, {r3, pc}
	.cfi_endproc
.LFE4:
	.fnend
	.size	ui_BTAUDIO_GetType, .-ui_BTAUDIO_GetType
	.align	2
	.global	ui_BTAUDIO_Ctor
	.type	ui_BTAUDIO_Ctor, %function
ui_BTAUDIO_Ctor:
	.fnstart
.LFB0:
	.loc 1 7 0
	.cfi_startproc
	@ args = 0, pretend = 0, frame = 24
	@ frame_needed = 0, uses_anonymous_args = 0
.LVL3:
	stmfd	sp!, {r4, r5, r6, r7, r8, sl, lr}
	.save {r4, r5, r6, r7, r8, sl, lr}
.LCFI1:
	.cfi_def_cfa_offset 28
	.pad #28
	sub	sp, sp, #28
.LCFI2:
	.cfi_def_cfa_offset 56
	mov	r4, r0
	.cfi_offset 14, -4
	.cfi_offset 10, -8
	.cfi_offset 8, -12
	.cfi_offset 7, -16
	.cfi_offset 6, -20
	.cfi_offset 5, -24
	.cfi_offset 4, -28
	mov	r5, r1
.LBB2:
	.loc 1 8 0
	bl	ui_BTAUDIO_GetType
.LVL4:
	bl	NGObject_Class
	cmp	r0, #0
.LVL5:
	bne	.L11
	mov	r0, #0
.LVL6:
	movw	r1, #:lower16:.LC0
	movt	r1, #:upper16:.LC0
	movw	r2, #:lower16:.LC1
	movt	r2, #:upper16:.LC1
	mov	r3, #8
	bl	DumpCallTrace
	bl	SysdItronCrashDumpReq
.L12:
	b	.L12
.LVL7:
.L11:
	ldr	r3, [r0, #20]
.LVL8:
	cmp	r3, #0
	bne	.L13
	mov	r0, #0
.LVL9:
	movw	r1, #:lower16:.LC0
	movt	r1, #:upper16:.LC0
	movw	r2, #:lower16:.LC1
	movt	r2, #:upper16:.LC1
	add	r3, r3, #8
.LVL10:
	bl	DumpCallTrace
	bl	SysdItronCrashDumpReq
.L14:
	b	.L14
.LVL11:
.L13:
	ldr	r3, [r3, #0]
.LVL12:
	cmp	r3, #0
	beq	.L15
	mov	r0, r4
.LVL13:
	mov	r1, r5
	blx	r3
.LVL14:
.L15:
.LBE2:
.LBB3:
	.loc 1 11 0
	movw	r7, #:lower16:.LANCHOR2
	movt	r7, #:upper16:.LANCHOR2
	add	r5, sp, #12
.LVL15:
	ldmia	r7, {r0, r1}
.LVL16:
	stmia	r5, {r0, r1}
	.loc 1 12 0
	ldr	r3, [r4, #0]
	mov	r0, r4
	ldrb	r1, [r3, #65]	@ zero_extendqisi2
	mov	r2, r5
	bl	NGObject_SetPropertyValue
.LBE3:
.LBB4:
	.loc 1 15 0
	mov	r8, #1
	add	r6, sp, #24
	strb	r8, [r6, #-4]!
.LVL17:
	.loc 1 16 0
	ldr	r3, [r4, #0]
	mov	r0, r4
	ldrb	r1, [r3, #480]	@ zero_extendqisi2
	mov	r2, r6
	bl	NGObject_SetPropertyValue
.LBE4:
.LBB5:
	.loc 1 19 0
	strb	r8, [sp, #20]
.LVL18:
	.loc 1 20 0
	ldr	r3, [r4, #0]
	mov	r0, r4
	ldrb	r1, [r3, #481]	@ zero_extendqisi2
	mov	r2, r6
	bl	NGObject_SetPropertyValue
.LBE5:
.LBB6:
	.loc 1 23 0
	mov	r3, #164
	str	r3, [sp, #20]
.LVL19:
	.loc 1 24 0
	ldr	r3, [r4, #0]
	mov	r0, r4
	ldrb	r1, [r3, #482]	@ zero_extendqisi2
	mov	r2, r6
	bl	NGObject_SetPropertyValue
.LBE6:
	.loc 1 27 0
	bl	NGLabel_GetType
	mov	r1, r4
	bl	NGObject_Create
	mov	r3, r0
	str	r0, [r4, #140]
.LBB7:
	.loc 1 29 0
	add	r2, r7, #8
	ldmia	r2, {r0, r1}
	stmia	r5, {r0, r1}
	.loc 1 30 0
	ldr	r2, [r3, #0]
	mov	r0, r3
	ldrb	r1, [r2, #65]	@ zero_extendqisi2
	mov	r2, r5
	bl	NGObject_SetPropertyValue
.LBE7:
.LBB8:
	.loc 1 33 0
	movw	r3, #1290
	str	r3, [sp, #20]
.LVL20:
	.loc 1 34 0
	ldr	r0, [r4, #140]
	ldr	r3, [r0, #0]
	ldrb	r1, [r3, #368]	@ zero_extendqisi2
	mov	r2, r6
	bl	NGObject_SetPropertyValue
.LBE8:
	.loc 1 37 0
	bl	NGLabel_GetType
	mov	r1, r4
	bl	NGObject_Create
	mov	r3, r0
	str	r0, [r4, #144]
.LBB9:
	.loc 1 39 0
	add	r2, r7, #16
	ldmia	r2, {r0, r1}
	stmia	r5, {r0, r1}
	.loc 1 40 0
	ldr	r2, [r3, #0]
	mov	r0, r3
	ldrb	r1, [r2, #65]	@ zero_extendqisi2
	mov	r2, r5
	bl	NGObject_SetPropertyValue
.LBE9:
.LBB10:
	.loc 1 43 0
	mov	r0, #255
	mov	r1, r0
	mov	r2, r0
	mov	r3, r0
	bl	FromRgba
	strb	r0, [sp, #0]
	ubfx	r3, r0, #8, #8
	strb	r3, [sp, #1]
	ubfx	r3, r0, #16, #8
	strb	r3, [sp, #2]
	ubfx	r0, r0, #24, #8
	strb	r0, [sp, #3]
	ldr	r3, [sp, #0]
	str	r3, [sp, #12]
	.loc 1 44 0
	ldr	r0, [r4, #144]
	ldr	r3, [r0, #0]
	ldrb	r1, [r3, #367]	@ zero_extendqisi2
	mov	r2, r5
	bl	NGObject_SetPropertyValue
.LBE10:
.LBB11:
	.loc 1 47 0
	mov	r3, #165
	str	r3, [sp, #20]
.LVL21:
	.loc 1 48 0
	ldr	r0, [r4, #144]
	ldr	r3, [r0, #0]
	ldrb	r1, [r3, #365]	@ zero_extendqisi2
	mov	r2, r6
	bl	NGObject_SetPropertyValue
.LBE11:
.LBB12:
	.loc 1 51 0
	mov	r3, #0
	strb	r3, [sp, #20]
.LVL22:
	.loc 1 52 0
	ldr	r0, [r4, #144]
	ldr	r3, [r0, #0]
	ldrb	r1, [r3, #66]	@ zero_extendqisi2
	mov	r2, r6
	bl	NGObject_SetPropertyValue
.LBE12:
	.loc 1 55 0
	bl	NGButton_GetType
	mov	r1, r4
	bl	NGObject_Create
	mov	r3, r0
	str	r0, [r4, #148]
.LBB13:
	.loc 1 57 0
	add	r2, r7, #24
	ldmia	r2, {r0, r1}
	stmia	r5, {r0, r1}
	.loc 1 58 0
	ldr	r2, [r3, #0]
	mov	r0, r3
	ldrb	r1, [r2, #65]	@ zero_extendqisi2
	mov	r2, r5
	bl	NGObject_SetPropertyValue
.LBE13:
.LBB14:
	.loc 1 61 0
	movw	r3, #934
	str	r3, [sp, #20]
.LVL23:
	.loc 1 62 0
	ldr	r0, [r4, #148]
	ldr	r3, [r0, #0]
	ldrb	r1, [r3, #391]	@ zero_extendqisi2
	mov	r2, r6
	bl	NGObject_SetPropertyValue
.LBE14:
.LBB15:
	.loc 1 65 0
	movw	r3, #935
	str	r3, [sp, #20]
.LVL24:
	.loc 1 66 0
	ldr	r0, [r4, #148]
	ldr	r3, [r0, #0]
	ldrb	r1, [r3, #393]	@ zero_extendqisi2
	mov	r2, r6
	bl	NGObject_SetPropertyValue
.LBE15:
.LBB16:
	.loc 1 69 0
	mov	r3, #936
	str	r3, [sp, #20]
.LVL25:
	.loc 1 70 0
	ldr	r0, [r4, #148]
	ldr	r3, [r0, #0]
	ldrb	r1, [r3, #390]	@ zero_extendqisi2
	mov	r2, r6
	bl	NGObject_SetPropertyValue
.LBE16:
.LBB17:
	.loc 1 73 0
	mvn	sl, #0
	str	sl, [sp, #20]
.LVL26:
	.loc 1 74 0
	ldr	r0, [r4, #148]
	ldr	r3, [r0, #0]
	ldrb	r1, [r3, #392]	@ zero_extendqisi2
	mov	r2, r6
	bl	NGObject_SetPropertyValue
.LBE17:
.LBB18:
	.loc 1 77 0
	str	sl, [sp, #20]
.LVL27:
	.loc 1 78 0
	ldr	r0, [r4, #148]
	ldr	r3, [r0, #0]
	ldrb	r1, [r3, #394]	@ zero_extendqisi2
	mov	r2, r6
	bl	NGObject_SetPropertyValue
.LBE18:
	.loc 1 81 0
	bl	NGButton_GetType
	mov	r1, r4
	bl	NGObject_Create
	mov	r3, r0
	str	r0, [r4, #152]
.LBB19:
	.loc 1 83 0
	add	r2, r7, #32
	ldmia	r2, {r0, r1}
	stmia	r5, {r0, r1}
	.loc 1 84 0
	ldr	r2, [r3, #0]
	mov	r0, r3
	ldrb	r1, [r2, #65]	@ zero_extendqisi2
	mov	r2, r5
	bl	NGObject_SetPropertyValue
.LBE19:
.LBB20:
	.loc 1 87 0
	movw	r3, #994
	str	r3, [sp, #20]
.LVL28:
	.loc 1 88 0
	ldr	r0, [r4, #152]
	ldr	r3, [r0, #0]
	ldrb	r1, [r3, #391]	@ zero_extendqisi2
	mov	r2, r6
	bl	NGObject_SetPropertyValue
.LBE20:
.LBB21:
	.loc 1 91 0
	movw	r3, #995
	str	r3, [sp, #20]
.LVL29:
	.loc 1 92 0
	ldr	r0, [r4, #152]
	ldr	r3, [r0, #0]
	ldrb	r1, [r3, #393]	@ zero_extendqisi2
	mov	r2, r6
	bl	NGObject_SetPropertyValue
.LBE21:
.LBB22:
	.loc 1 95 0
	mov	r3, #996
	str	r3, [sp, #20]
.LVL30:
	.loc 1 96 0
	ldr	r0, [r4, #152]
	ldr	r3, [r0, #0]
	ldrb	r1, [r3, #390]	@ zero_extendqisi2
	mov	r2, r6
	bl	NGObject_SetPropertyValue
.LBE22:
.LBB23:
	.loc 1 99 0
	str	sl, [sp, #20]
.LVL31:
	.loc 1 100 0
	ldr	r0, [r4, #152]
	ldr	r3, [r0, #0]
	ldrb	r1, [r3, #392]	@ zero_extendqisi2
	mov	r2, r6
	bl	NGObject_SetPropertyValue
.LBE23:
.LBB24:
	.loc 1 103 0
	str	sl, [sp, #20]
.LVL32:
	.loc 1 104 0
	ldr	r0, [r4, #152]
	ldr	r3, [r0, #0]
	ldrb	r1, [r3, #394]	@ zero_extendqisi2
	mov	r2, r6
	bl	NGObject_SetPropertyValue
.LBE24:
	.loc 1 107 0
	bl	NGPlayButton_GetType
	mov	r1, r4
	bl	NGObject_Create
	mov	r3, r0
	str	r0, [r4, #156]
.LBB25:
	.loc 1 109 0
	add	r2, r7, #40
	ldmia	r2, {r0, r1}
	stmia	r5, {r0, r1}
	.loc 1 110 0
	ldr	r2, [r3, #0]
	mov	r0, r3
	ldrb	r1, [r2, #65]	@ zero_extendqisi2
	mov	r2, r5
	bl	NGObject_SetPropertyValue
.LBE25:
.LBB26:
	.loc 1 113 0
	movw	r3, #1066
	str	r3, [sp, #20]
.LVL33:
	.loc 1 114 0
	ldr	r0, [r4, #156]
	ldr	r3, [r0, #0]
	ldrb	r1, [r3, #391]	@ zero_extendqisi2
	mov	r2, r6
	bl	NGObject_SetPropertyValue
.LBE26:
	.loc 1 117 0
	bl	NGBTARandomSts_GetType
	mov	r1, r4
	bl	NGObject_Create
	mov	r3, r0
	str	r0, [r4, #160]
.LBB27:
	.loc 1 119 0
	add	r2, r7, #48
	ldmia	r2, {r0, r1}
	stmia	r5, {r0, r1}
	.loc 1 120 0
	ldr	r2, [r3, #0]
	mov	r0, r3
	ldrb	r1, [r2, #65]	@ zero_extendqisi2
	mov	r2, r5
	bl	NGObject_SetPropertyValue
.LBE27:
	.loc 1 123 0
	bl	NGBTARepeatSts_GetType
	mov	r1, r4
	bl	NGObject_Create
	mov	r3, r0
	str	r0, [r4, #164]
.LBB28:
	.loc 1 125 0
	add	r2, r7, #56
	ldmia	r2, {r0, r1}
	stmia	r5, {r0, r1}
	.loc 1 126 0
	ldr	r2, [r3, #0]
	mov	r0, r3
	ldrb	r1, [r2, #65]	@ zero_extendqisi2
	mov	r2, r5
	bl	NGObject_SetPropertyValue
.LBE28:
	.loc 1 129 0
	bl	NGLabel_GetType
	mov	r1, r4
	bl	NGObject_Create
	mov	r3, r0
	str	r0, [r4, #168]
.LBB29:
	.loc 1 131 0
	add	r2, r7, #64
	ldmia	r2, {r0, r1}
	stmia	r5, {r0, r1}
	.loc 1 132 0
	ldr	r2, [r3, #0]
	mov	r0, r3
	ldrb	r1, [r2, #65]	@ zero_extendqisi2
	mov	r2, r5
	bl	NGObject_SetPropertyValue
.LBE29:
.LBB30:
	.loc 1 135 0
	mov	r0, #255
	mov	r1, r0
	mov	r2, r0
	mov	r3, r0
	bl	FromRgba
	strb	r0, [sp, #0]
	ubfx	r3, r0, #8, #8
	strb	r3, [sp, #1]
	ubfx	r3, r0, #16, #8
	strb	r3, [sp, #2]
	ubfx	r0, r0, #24, #8
	strb	r0, [sp, #3]
	ldr	r3, [sp, #0]
	str	r3, [sp, #12]
	.loc 1 136 0
	ldr	r0, [r4, #168]
	ldr	r3, [r0, #0]
	ldrb	r1, [r3, #367]	@ zero_extendqisi2
	mov	r2, r5
	bl	NGObject_SetPropertyValue
.LBE30:
.LBB31:
	.loc 1 139 0
	strb	r8, [sp, #20]
.LVL34:
	.loc 1 140 0
	ldr	r0, [r4, #168]
	ldr	r3, [r0, #0]
	ldrb	r1, [r3, #373]	@ zero_extendqisi2
	mov	r2, r6
	bl	NGObject_SetPropertyValue
.LBE31:
	.loc 1 143 0
	bl	NGLabel_GetType
	mov	r1, r4
	bl	NGObject_Create
	mov	r3, r0
	str	r0, [r4, #172]
.LBB32:
	.loc 1 145 0
	add	r2, r7, #72
	ldmia	r2, {r0, r1}
	stmia	r5, {r0, r1}
	.loc 1 146 0
	ldr	r2, [r3, #0]
	mov	r0, r3
	ldrb	r1, [r2, #65]	@ zero_extendqisi2
	mov	r2, r5
	bl	NGObject_SetPropertyValue
.LBE32:
.LBB33:
	.loc 1 149 0
	mov	r0, #255
	mov	r1, r0
	mov	r2, r0
	mov	r3, r0
	bl	FromRgba
	strb	r0, [sp, #0]
	ubfx	r3, r0, #8, #8
	strb	r3, [sp, #1]
	ubfx	r3, r0, #16, #8
	strb	r3, [sp, #2]
	ubfx	r0, r0, #24, #8
	strb	r0, [sp, #3]
	ldr	r3, [sp, #0]
	str	r3, [sp, #12]
	.loc 1 150 0
	ldr	r0, [r4, #172]
	ldr	r3, [r0, #0]
	ldrb	r1, [r3, #367]	@ zero_extendqisi2
	mov	r2, r5
	bl	NGObject_SetPropertyValue
.LBE33:
.LBB34:
	.loc 1 153 0
	strb	r8, [sp, #20]
.LVL35:
	.loc 1 154 0
	ldr	r0, [r4, #172]
	ldr	r3, [r0, #0]
	ldrb	r1, [r3, #373]	@ zero_extendqisi2
	mov	r2, r6
	bl	NGObject_SetPropertyValue
.LBE34:
	.loc 1 157 0
	bl	NGLabel_GetType
	mov	r1, r4
	bl	NGObject_Create
	mov	r3, r0
	str	r0, [r4, #176]
.LBB35:
	.loc 1 159 0
	add	r2, r7, #80
	ldmia	r2, {r0, r1}
	stmia	r5, {r0, r1}
	.loc 1 160 0
	ldr	r2, [r3, #0]
	mov	r0, r3
	ldrb	r1, [r2, #65]	@ zero_extendqisi2
	mov	r2, r5
	bl	NGObject_SetPropertyValue
.LBE35:
.LBB36:
	.loc 1 163 0
	mov	r0, #255
	mov	r1, r0
	mov	r2, r0
	mov	r3, r0
	bl	FromRgba
	strb	r0, [sp, #0]
	ubfx	r3, r0, #8, #8
	strb	r3, [sp, #1]
	ubfx	r3, r0, #16, #8
	strb	r3, [sp, #2]
	ubfx	r0, r0, #24, #8
	strb	r0, [sp, #3]
	ldr	r3, [sp, #0]
	str	r3, [sp, #12]
	.loc 1 164 0
	ldr	r0, [r4, #176]
	ldr	r3, [r0, #0]
	ldrb	r1, [r3, #367]	@ zero_extendqisi2
	mov	r2, r5
	bl	NGObject_SetPropertyValue
.LBE36:
.LBB37:
	.loc 1 167 0
	strb	r8, [sp, #20]
.LVL36:
	.loc 1 168 0
	ldr	r0, [r4, #176]
	ldr	r3, [r0, #0]
	ldrb	r1, [r3, #373]	@ zero_extendqisi2
	mov	r2, r6
	bl	NGObject_SetPropertyValue
.LBE37:
	.loc 1 171 0
	bl	NGLabel_GetType
	mov	r1, r4
	bl	NGObject_Create
	mov	r3, r0
	str	r0, [r4, #180]
.LBB38:
	.loc 1 173 0
	add	r2, r7, #88
	ldmia	r2, {r0, r1}
	stmia	r5, {r0, r1}
	.loc 1 174 0
	ldr	r2, [r3, #0]
	mov	r0, r3
	ldrb	r1, [r2, #65]	@ zero_extendqisi2
	mov	r2, r5
	bl	NGObject_SetPropertyValue
.LBE38:
.LBB39:
	.loc 1 177 0
	mov	r3, #171
	str	r3, [sp, #20]
.LVL37:
	.loc 1 178 0
	ldr	r0, [r4, #180]
	ldr	r3, [r0, #0]
	ldrb	r1, [r3, #365]	@ zero_extendqisi2
	mov	r2, r6
	bl	NGObject_SetPropertyValue
.LBE39:
	.loc 1 181 0
	bl	NGAudioProgressBar_GetType
	mov	r1, r4
	bl	NGObject_Create
	mov	r3, r0
	str	r0, [r4, #184]
.LBB40:
	.loc 1 183 0
	add	r2, r7, #96
	ldmia	r2, {r0, r1}
	stmia	r5, {r0, r1}
	.loc 1 184 0
	ldr	r2, [r3, #0]
	mov	r0, r3
	ldrb	r1, [r2, #65]	@ zero_extendqisi2
	mov	r2, r5
	bl	NGObject_SetPropertyValue
.LBE40:
	.loc 1 187 0
	bl	NGPlayTime_GetType
	mov	r1, r4
	bl	NGObject_Create
	mov	r3, r0
	str	r0, [r4, #188]
.LBB41:
	.loc 1 189 0
	add	r2, r7, #104
	ldmia	r2, {r0, r1}
	stmia	r5, {r0, r1}
	.loc 1 190 0
	ldr	r2, [r3, #0]
	mov	r0, r3
	ldrb	r1, [r2, #65]	@ zero_extendqisi2
	mov	r2, r5
	bl	NGObject_SetPropertyValue
.LBE41:
	.loc 1 193 0
	bl	NGNumLabel_GetType
	mov	r1, r4
	bl	NGObject_Create
	mov	r3, r0
	str	r0, [r4, #192]
.LBB42:
	.loc 1 195 0
	add	r7, r7, #112
	ldmia	r7, {r0, r1}
	stmia	r5, {r0, r1}
	.loc 1 196 0
	ldr	r2, [r3, #0]
	mov	r0, r3
	ldrb	r1, [r2, #65]	@ zero_extendqisi2
	mov	r2, r5
	bl	NGObject_SetPropertyValue
.LBE42:
	.loc 1 198 0
	add	sp, sp, #28
	ldmfd	sp!, {r4, r5, r6, r7, r8, sl, pc}
	.cfi_endproc
.LFE0:
	.fnend
	.size	ui_BTAUDIO_Ctor, .-ui_BTAUDIO_Ctor
	.section	.rodata
	.align	2
	.set	.LANCHOR2,. + 0
	.type	C.1.11556, %object
	.size	C.1.11556, 8
C.1.11556:
	.short	0
	.short	0
	.short	800
	.short	480
	.type	C.3.11566, %object
	.size	C.3.11566, 8
C.3.11566:
	.short	0
	.short	0
	.short	800
	.short	480
	.type	C.4.11575, %object
	.size	C.4.11575, 8
C.4.11575:
	.short	74
	.short	167
	.short	646
	.short	32
	.type	C.5.11586, %object
	.size	C.5.11586, 8
C.5.11586:
	.short	271
	.short	267
	.short	84
	.short	99
	.type	C.6.11599, %object
	.size	C.6.11599, 8
C.6.11599:
	.short	445
	.short	267
	.short	84
	.short	99
	.type	C.7.11612, %object
	.size	C.7.11612, 8
C.7.11612:
	.short	358
	.short	267
	.short	84
	.short	99
	.type	C.8.11621, %object
	.size	C.8.11621, 8
C.8.11621:
	.short	145
	.short	267
	.short	99
	.short	114
	.type	C.9.11629, %object
	.size	C.9.11629, 8
C.9.11629:
	.short	555
	.short	267
	.short	99
	.short	114
	.type	C.10.11637, %object
	.size	C.10.11637, 8
C.10.11637:
	.short	205
	.short	116
	.short	390
	.short	32
	.type	C.11.11647, %object
	.size	C.11.11647, 8
C.11.11647:
	.short	196
	.short	166
	.short	408
	.short	24
	.type	C.12.11657, %object
	.size	C.12.11657, 8
C.12.11657:
	.short	196
	.short	74
	.short	408
	.short	24
	.type	C.13.11667, %object
	.size	C.13.11667, 8
C.13.11667:
	.short	663
	.short	228
	.short	77
	.short	24
	.type	C.14.11676, %object
	.size	C.14.11676, 8
C.14.11676:
	.short	195
	.short	245
	.short	412
	.short	12
	.type	C.15.11684, %object
	.size	C.15.11684, 8
C.15.11684:
	.short	335
	.short	215
	.short	100
	.short	22
	.type	C.16.11692, %object
	.size	C.16.11692, 8
C.16.11692:
	.short	683
	.short	255
	.short	80
	.short	22
	.data
	.align	2
	.set	.LANCHOR1,. + 0
	.type	ui_BTAUDIOInfo, %object
	.size	ui_BTAUDIOInfo, 48
ui_BTAUDIOInfo:
	.ascii	"ui_BTAUDIO\000"
	.space	21
	.short	196
	.short	484
	.word	ui_BTAUDIO_BaseClassInit
	.word	ui_BTAUDIO_ClassInit
	.word	0
	.section	.rodata.str1.4,"aMS",%progbits,1
	.align	2
.LC0:
	.ascii	"In file %s line %d\012\000"
.LC1:
	.ascii	"ui_BTAUDIO.c\000"
	.bss
	.align	1
	.set	.LANCHOR0,. + 0
	.type	type.11711, %object
	.size	type.11711, 2
type.11711:
	.space	2
	.text
.Letext0: