	.cpu cortex-a9
	.eabi_attribute 27, 3
	.fpu neon
	.eabi_attribute 20, 1
	.eabi_attribute 21, 1
	.eabi_attribute 23, 3
	.eabi_attribute 24, 1
	.eabi_attribute 25, 1
	.eabi_attribute 26, 1
	.eabi_attribute 30, 1
	.eabi_attribute 18, 4
	.file	"stsmng_if_forui_spotify.c"
	.text
.Ltext0:
	.cfi_sections	.debug_frame
	.align	2
	.global	stsmng_if_disdat_get_spy_appConSts
	.type	stsmng_if_disdat_get_spy_appConSts, %function
stsmng_if_disdat_get_spy_appConSts:
	.fnstart
.LFB91:
	.file 1 "stsmng_if_forui_spotify.c"
	.loc 1 2438 0
	.cfi_startproc
	@ args = 0, pretend = 0, frame = 0
	@ frame_needed = 0, uses_anonymous_args = 0
	stmfd	sp!, {r3, lr}
	.save {r3, lr}
.LCFI0:
	.cfi_def_cfa_offset 8
	.loc 1 2440 0
	.cfi_offset 14, -4
	.cfi_offset 3, -8
	bl	ui_stsMng_get_disp_data
	movw	r3, #:lower16:131560
	movt	r3, #:upper16:131560
	.loc 1 2443 0
	ldrb	r0, [r0, r3]	@ zero_extendqisi2
	ldmfd	sp!, {r3, pc}
	.cfi_endproc
.LFE91:
	.fnend
	.size	stsmng_if_disdat_get_spy_appConSts, .-stsmng_if_disdat_get_spy_appConSts
	.align	2
	.global	stsmng_if_disdat_get_spy_stsInf_cod
	.type	stsmng_if_disdat_get_spy_stsInf_cod, %function
stsmng_if_disdat_get_spy_stsInf_cod:
	.fnstart
.LFB88:
	.loc 1 2381 0
	.cfi_startproc
	@ args = 0, pretend = 0, frame = 0
	@ frame_needed = 0, uses_anonymous_args = 0
	stmfd	sp!, {r3, lr}
	.save {r3, lr}
.LCFI1:
	.cfi_def_cfa_offset 8
	.loc 1 2383 0
	.cfi_offset 14, -4
	.cfi_offset 3, -8
	bl	ui_stsMng_get_disp_data
	movw	r3, #:lower16:138512
	movt	r3, #:upper16:138512
	.loc 1 2385 0
	ldr	r0, [r0, r3]
	ldmfd	sp!, {r3, pc}
	.cfi_endproc
.LFE88:
	.fnend
	.size	stsmng_if_disdat_get_spy_stsInf_cod, .-stsmng_if_disdat_get_spy_stsInf_cod
	.align	2
	.global	stsmng_if_disdat_get_spy_altInf_cod
	.type	stsmng_if_disdat_get_spy_altInf_cod, %function
stsmng_if_disdat_get_spy_altInf_cod:
	.fnstart
.LFB85:
	.loc 1 2324 0
	.cfi_startproc
	@ args = 0, pretend = 0, frame = 0
	@ frame_needed = 0, uses_anonymous_args = 0
	stmfd	sp!, {r3, lr}
	.save {r3, lr}
.LCFI2:
	.cfi_def_cfa_offset 8
	.loc 1 2326 0
	.cfi_offset 14, -4
	.cfi_offset 3, -8
	bl	ui_stsMng_get_disp_data
	movw	r3, #:lower16:138380
	movt	r3, #:upper16:138380
	.loc 1 2328 0
	ldr	r0, [r0, r3]
	ldmfd	sp!, {r3, pc}
	.cfi_endproc
.LFE85:
	.fnend
	.size	stsmng_if_disdat_get_spy_altInf_cod, .-stsmng_if_disdat_get_spy_altInf_cod
	.align	2
	.global	stsmng_if_disdat_get_spy_lstItmInf_subPlyFlg
	.type	stsmng_if_disdat_get_spy_lstItmInf_subPlyFlg, %function
stsmng_if_disdat_get_spy_lstItmInf_subPlyFlg:
	.fnstart
.LFB84:
	.loc 1 2309 0
	.cfi_startproc
	@ args = 0, pretend = 0, frame = 0
	@ frame_needed = 0, uses_anonymous_args = 0
	stmfd	sp!, {r3, lr}
	.save {r3, lr}
.LCFI3:
	.cfi_def_cfa_offset 8
	.loc 1 2311 0
	.cfi_offset 14, -4
	.cfi_offset 3, -8
	bl	ui_stsMng_get_disp_data
	movw	r3, #:lower16:138377
	movt	r3, #:upper16:138377
	.loc 1 2313 0
	ldrb	r0, [r0, r3]	@ zero_extendqisi2
	ldmfd	sp!, {r3, pc}
	.cfi_endproc
.LFE84:
	.fnend
	.size	stsmng_if_disdat_get_spy_lstItmInf_subPlyFlg, .-stsmng_if_disdat_get_spy_lstItmInf_subPlyFlg
	.align	2
	.global	stsmng_if_disdat_get_spy_lstItmInf_plyFlg
	.type	stsmng_if_disdat_get_spy_lstItmInf_plyFlg, %function
stsmng_if_disdat_get_spy_lstItmInf_plyFlg:
	.fnstart
.LFB83:
	.loc 1 2294 0
	.cfi_startproc
	@ args = 0, pretend = 0, frame = 0
	@ frame_needed = 0, uses_anonymous_args = 0
	stmfd	sp!, {r3, lr}
	.save {r3, lr}
.LCFI4:
	.cfi_def_cfa_offset 8
	.loc 1 2296 0
	.cfi_offset 14, -4
	.cfi_offset 3, -8
	bl	ui_stsMng_get_disp_data
	movw	r3, #:lower16:138376
	movt	r3, #:upper16:138376
	.loc 1 2298 0
	ldrb	r0, [r0, r3]	@ zero_extendqisi2
	ldmfd	sp!, {r3, pc}
	.cfi_endproc
.LFE83:
	.fnend
	.size	stsmng_if_disdat_get_spy_lstItmInf_plyFlg, .-stsmng_if_disdat_get_spy_lstItmInf_plyFlg
	.align	2
	.global	stsmng_if_disdat_get_spy_thnlInf_imgDatSiz
	.type	stsmng_if_disdat_get_spy_thnlInf_imgDatSiz, %function
stsmng_if_disdat_get_spy_thnlInf_imgDatSiz:
	.fnstart
.LFB77:
	.loc 1 2174 0
	.cfi_startproc
	@ args = 0, pretend = 0, frame = 0
	@ frame_needed = 0, uses_anonymous_args = 0
	stmfd	sp!, {r3, lr}
	.save {r3, lr}
.LCFI5:
	.cfi_def_cfa_offset 8
	.loc 1 2176 0
	.cfi_offset 14, -4
	.cfi_offset 3, -8
	bl	ui_stsMng_get_disp_data
	movw	r3, #:lower16:136708
	movt	r3, #:upper16:136708
	.loc 1 2178 0
	ldr	r0, [r0, r3]
	ldmfd	sp!, {r3, pc}
	.cfi_endproc
.LFE77:
	.fnend
	.size	stsmng_if_disdat_get_spy_thnlInf_imgDatSiz, .-stsmng_if_disdat_get_spy_thnlInf_imgDatSiz
	.align	2
	.global	stsmng_if_disdat_get_spy_thnlInf_hSiz
	.type	stsmng_if_disdat_get_spy_thnlInf_hSiz, %function
stsmng_if_disdat_get_spy_thnlInf_hSiz:
	.fnstart
.LFB76:
	.loc 1 2159 0
	.cfi_startproc
	@ args = 0, pretend = 0, frame = 0
	@ frame_needed = 0, uses_anonymous_args = 0
	stmfd	sp!, {r3, lr}
	.save {r3, lr}
.LCFI6:
	.cfi_def_cfa_offset 8
	.loc 1 2161 0
	.cfi_offset 14, -4
	.cfi_offset 3, -8
	bl	ui_stsMng_get_disp_data
	movw	r3, #:lower16:136706
	movt	r3, #:upper16:136706
	.loc 1 2163 0
	ldrh	r0, [r0, r3]
	ldmfd	sp!, {r3, pc}
	.cfi_endproc
.LFE76:
	.fnend
	.size	stsmng_if_disdat_get_spy_thnlInf_hSiz, .-stsmng_if_disdat_get_spy_thnlInf_hSiz
	.align	2
	.global	stsmng_if_disdat_get_spy_thnlInf_vSiz
	.type	stsmng_if_disdat_get_spy_thnlInf_vSiz, %function
stsmng_if_disdat_get_spy_thnlInf_vSiz:
	.fnstart
.LFB75:
	.loc 1 2144 0
	.cfi_startproc
	@ args = 0, pretend = 0, frame = 0
	@ frame_needed = 0, uses_anonymous_args = 0
	stmfd	sp!, {r3, lr}
	.save {r3, lr}
.LCFI7:
	.cfi_def_cfa_offset 8
	.loc 1 2146 0
	.cfi_offset 14, -4
	.cfi_offset 3, -8
	bl	ui_stsMng_get_disp_data
	movw	r3, #:lower16:136704
	movt	r3, #:upper16:136704
	.loc 1 2148 0
	ldrh	r0, [r0, r3]
	ldmfd	sp!, {r3, pc}
	.cfi_endproc
.LFE75:
	.fnend
	.size	stsmng_if_disdat_get_spy_thnlInf_vSiz, .-stsmng_if_disdat_get_spy_thnlInf_vSiz
	.align	2
	.global	stsmng_if_disdat_get_spy_artwkInf_imgDatSiz
	.type	stsmng_if_disdat_get_spy_artwkInf_imgDatSiz, %function
stsmng_if_disdat_get_spy_artwkInf_imgDatSiz:
	.fnstart
.LFB73:
	.loc 1 2108 0
	.cfi_startproc
	@ args = 0, pretend = 0, frame = 0
	@ frame_needed = 0, uses_anonymous_args = 0
	stmfd	sp!, {r3, lr}
	.save {r3, lr}
.LCFI8:
	.cfi_def_cfa_offset 8
	.loc 1 2110 0
	.cfi_offset 14, -4
	.cfi_offset 3, -8
	bl	ui_stsMng_get_disp_data
	movw	r3, #:lower16:136188
	movt	r3, #:upper16:136188
	.loc 1 2112 0
	ldr	r0, [r0, r3]
	ldmfd	sp!, {r3, pc}
	.cfi_endproc
.LFE73:
	.fnend
	.size	stsmng_if_disdat_get_spy_artwkInf_imgDatSiz, .-stsmng_if_disdat_get_spy_artwkInf_imgDatSiz
	.align	2
	.global	stsmng_if_disdat_get_spy_artwkInf_horSiz
	.type	stsmng_if_disdat_get_spy_artwkInf_horSiz, %function
stsmng_if_disdat_get_spy_artwkInf_horSiz:
	.fnstart
.LFB72:
	.loc 1 2093 0
	.cfi_startproc
	@ args = 0, pretend = 0, frame = 0
	@ frame_needed = 0, uses_anonymous_args = 0
	stmfd	sp!, {r3, lr}
	.save {r3, lr}
.LCFI9:
	.cfi_def_cfa_offset 8
	.loc 1 2095 0
	.cfi_offset 14, -4
	.cfi_offset 3, -8
	bl	ui_stsMng_get_disp_data
	movw	r3, #:lower16:136186
	movt	r3, #:upper16:136186
	.loc 1 2097 0
	ldrh	r0, [r0, r3]
	ldmfd	sp!, {r3, pc}
	.cfi_endproc
.LFE72:
	.fnend
	.size	stsmng_if_disdat_get_spy_artwkInf_horSiz, .-stsmng_if_disdat_get_spy_artwkInf_horSiz
	.align	2
	.global	stsmng_if_disdat_get_spy_artwkInf_verSiz
	.type	stsmng_if_disdat_get_spy_artwkInf_verSiz, %function
stsmng_if_disdat_get_spy_artwkInf_verSiz:
	.fnstart
.LFB71:
	.loc 1 2078 0
	.cfi_startproc
	@ args = 0, pretend = 0, frame = 0
	@ frame_needed = 0, uses_anonymous_args = 0
	stmfd	sp!, {r3, lr}
	.save {r3, lr}
.LCFI10:
	.cfi_def_cfa_offset 8
	.loc 1 2080 0
	.cfi_offset 14, -4
	.cfi_offset 3, -8
	bl	ui_stsMng_get_disp_data
	movw	r3, #:lower16:136184
	movt	r3, #:upper16:136184
	.loc 1 2082 0
	ldrh	r0, [r0, r3]
	ldmfd	sp!, {r3, pc}
	.cfi_endproc
.LFE71:
	.fnend
	.size	stsmng_if_disdat_get_spy_artwkInf_verSiz, .-stsmng_if_disdat_get_spy_artwkInf_verSiz
	.align	2
	.global	stsmng_if_disdat_get_spy_plyPos
	.type	stsmng_if_disdat_get_spy_plyPos, %function
stsmng_if_disdat_get_spy_plyPos:
	.fnstart
.LFB69:
	.loc 1 2042 0
	.cfi_startproc
	@ args = 0, pretend = 0, frame = 0
	@ frame_needed = 0, uses_anonymous_args = 0
	stmfd	sp!, {r3, lr}
	.save {r3, lr}
.LCFI11:
	.cfi_def_cfa_offset 8
	.loc 1 2044 0
	.cfi_offset 14, -4
	.cfi_offset 3, -8
	bl	ui_stsMng_get_disp_data
	movw	r3, #:lower16:131572
	movt	r3, #:upper16:131572
	.loc 1 2046 0
	ldr	r0, [r0, r3]
	ldmfd	sp!, {r3, pc}
	.cfi_endproc
.LFE69:
	.fnend
	.size	stsmng_if_disdat_get_spy_plyPos, .-stsmng_if_disdat_get_spy_plyPos
	.align	2
	.global	stsmng_if_disdat_get_spy_trkTim
	.type	stsmng_if_disdat_get_spy_trkTim, %function
stsmng_if_disdat_get_spy_trkTim:
	.fnstart
.LFB68:
	.loc 1 2027 0
	.cfi_startproc
	@ args = 0, pretend = 0, frame = 0
	@ frame_needed = 0, uses_anonymous_args = 0
	stmfd	sp!, {r3, lr}
	.save {r3, lr}
.LCFI12:
	.cfi_def_cfa_offset 8
	.loc 1 2029 0
	.cfi_offset 14, -4
	.cfi_offset 3, -8
	bl	ui_stsMng_get_disp_data
	movw	r3, #:lower16:131568
	movt	r3, #:upper16:131568
	.loc 1 2031 0
	ldr	r0, [r0, r3]
	ldmfd	sp!, {r3, pc}
	.cfi_endproc
.LFE68:
	.fnend
	.size	stsmng_if_disdat_get_spy_trkTim, .-stsmng_if_disdat_get_spy_trkTim
	.align	2
	.global	stsmng_if_disdat_get_spy_plyTim
	.type	stsmng_if_disdat_get_spy_plyTim, %function
stsmng_if_disdat_get_spy_plyTim:
	.fnstart
.LFB67:
	.loc 1 2012 0
	.cfi_startproc
	@ args = 0, pretend = 0, frame = 0
	@ frame_needed = 0, uses_anonymous_args = 0
	stmfd	sp!, {r3, lr}
	.save {r3, lr}
.LCFI13:
	.cfi_def_cfa_offset 8
	.loc 1 2014 0
	.cfi_offset 14, -4
	.cfi_offset 3, -8
	bl	ui_stsMng_get_disp_data
	movw	r3, #:lower16:131564
	movt	r3, #:upper16:131564
	.loc 1 2016 0
	ldr	r0, [r0, r3]
	ldmfd	sp!, {r3, pc}
	.cfi_endproc
.LFE67:
	.fnend
	.size	stsmng_if_disdat_get_spy_plyTim, .-stsmng_if_disdat_get_spy_plyTim
	.align	2
	.global	stsmng_if_disdat_get_spy_trkInf_trkNo
	.type	stsmng_if_disdat_get_spy_trkInf_trkNo, %function
stsmng_if_disdat_get_spy_trkInf_trkNo:
	.fnstart
.LFB66:
	.loc 1 1997 0
	.cfi_startproc
	@ args = 0, pretend = 0, frame = 0
	@ frame_needed = 0, uses_anonymous_args = 0
	stmfd	sp!, {r3, lr}
	.save {r3, lr}
.LCFI14:
	.cfi_def_cfa_offset 8
	.loc 1 1999 0
	.cfi_offset 14, -4
	.cfi_offset 3, -8
	bl	ui_stsMng_get_disp_data
	movw	r3, #:lower16:142240
	movt	r3, #:upper16:142240
	.loc 1 2001 0
	ldr	r0, [r0, r3]
	ldmfd	sp!, {r3, pc}
	.cfi_endproc
.LFE66:
	.fnend
	.size	stsmng_if_disdat_get_spy_trkInf_trkNo, .-stsmng_if_disdat_get_spy_trkInf_trkNo
	.align	2
	.global	stsmng_if_disdat_get_spy_trkInf_trkTim
	.type	stsmng_if_disdat_get_spy_trkInf_trkTim, %function
stsmng_if_disdat_get_spy_trkInf_trkTim:
	.fnstart
.LFB65:
	.loc 1 1982 0
	.cfi_startproc
	@ args = 0, pretend = 0, frame = 0
	@ frame_needed = 0, uses_anonymous_args = 0
	stmfd	sp!, {r3, lr}
	.save {r3, lr}
.LCFI15:
	.cfi_def_cfa_offset 8
	.loc 1 1984 0
	.cfi_offset 14, -4
	.cfi_offset 3, -8
	bl	ui_stsMng_get_disp_data
	movw	r3, #:lower16:142172
	movt	r3, #:upper16:142172
	.loc 1 1986 0
	ldr	r0, [r0, r3]
	ldmfd	sp!, {r3, pc}
	.cfi_endproc
.LFE65:
	.fnend
	.size	stsmng_if_disdat_get_spy_trkInf_trkTim, .-stsmng_if_disdat_get_spy_trkInf_trkTim
	.align	2
	.global	stsmng_if_disdat_get_spy_trkInf_resumFlg
	.type	stsmng_if_disdat_get_spy_trkInf_resumFlg, %function
stsmng_if_disdat_get_spy_trkInf_resumFlg:
	.fnstart
.LFB64:
	.loc 1 1967 0
	.cfi_startproc
	@ args = 0, pretend = 0, frame = 0
	@ frame_needed = 0, uses_anonymous_args = 0
	stmfd	sp!, {r3, lr}
	.save {r3, lr}
.LCFI16:
	.cfi_def_cfa_offset 8
	.loc 1 1969 0
	.cfi_offset 14, -4
	.cfi_offset 3, -8
	bl	ui_stsMng_get_disp_data
	movw	r3, #:lower16:143855
	movt	r3, #:upper16:143855
	.loc 1 1971 0
	ldrb	r0, [r0, r3]	@ zero_extendqisi2
	ldmfd	sp!, {r3, pc}
	.cfi_endproc
.LFE64:
	.fnend
	.size	stsmng_if_disdat_get_spy_trkInf_resumFlg, .-stsmng_if_disdat_get_spy_trkInf_resumFlg
	.align	2
	.global	stsmng_if_disdat_get_spy_trkInf_PauFlg
	.type	stsmng_if_disdat_get_spy_trkInf_PauFlg, %function
stsmng_if_disdat_get_spy_trkInf_PauFlg:
	.fnstart
.LFB63:
	.loc 1 1952 0
	.cfi_startproc
	@ args = 0, pretend = 0, frame = 0
	@ frame_needed = 0, uses_anonymous_args = 0
	stmfd	sp!, {r3, lr}
	.save {r3, lr}
.LCFI17:
	.cfi_def_cfa_offset 8
	.loc 1 1954 0
	.cfi_offset 14, -4
	.cfi_offset 3, -8
	bl	ui_stsMng_get_disp_data
	movw	r3, #:lower16:143854
	movt	r3, #:upper16:143854
	.loc 1 1956 0
	ldrb	r0, [r0, r3]	@ zero_extendqisi2
	ldmfd	sp!, {r3, pc}
	.cfi_endproc
.LFE63:
	.fnend
	.size	stsmng_if_disdat_get_spy_trkInf_PauFlg, .-stsmng_if_disdat_get_spy_trkInf_PauFlg
	.align	2
	.global	stsmng_if_disdat_get_spy_trkInf_skpPrvFlg
	.type	stsmng_if_disdat_get_spy_trkInf_skpPrvFlg, %function
stsmng_if_disdat_get_spy_trkInf_skpPrvFlg:
	.fnstart
.LFB62:
	.loc 1 1937 0
	.cfi_startproc
	@ args = 0, pretend = 0, frame = 0
	@ frame_needed = 0, uses_anonymous_args = 0
	stmfd	sp!, {r3, lr}
	.save {r3, lr}
.LCFI18:
	.cfi_def_cfa_offset 8
	.loc 1 1939 0
	.cfi_offset 14, -4
	.cfi_offset 3, -8
	bl	ui_stsMng_get_disp_data
	movw	r3, #:lower16:143853
	movt	r3, #:upper16:143853
	.loc 1 1941 0
	ldrb	r0, [r0, r3]	@ zero_extendqisi2
	ldmfd	sp!, {r3, pc}
	.cfi_endproc
.LFE62:
	.fnend
	.size	stsmng_if_disdat_get_spy_trkInf_skpPrvFlg, .-stsmng_if_disdat_get_spy_trkInf_skpPrvFlg
	.align	2
	.global	stsmng_if_disdat_get_spy_trkInf_skpNxtFlg
	.type	stsmng_if_disdat_get_spy_trkInf_skpNxtFlg, %function
stsmng_if_disdat_get_spy_trkInf_skpNxtFlg:
	.fnstart
.LFB61:
	.loc 1 1922 0
	.cfi_startproc
	@ args = 0, pretend = 0, frame = 0
	@ frame_needed = 0, uses_anonymous_args = 0
	stmfd	sp!, {r3, lr}
	.save {r3, lr}
.LCFI19:
	.cfi_def_cfa_offset 8
	.loc 1 1924 0
	.cfi_offset 14, -4
	.cfi_offset 3, -8
	bl	ui_stsMng_get_disp_data
	movw	r3, #:lower16:143852
	movt	r3, #:upper16:143852
	.loc 1 1926 0
	ldrb	r0, [r0, r3]	@ zero_extendqisi2
	ldmfd	sp!, {r3, pc}
	.cfi_endproc
.LFE61:
	.fnend
	.size	stsmng_if_disdat_get_spy_trkInf_skpNxtFlg, .-stsmng_if_disdat_get_spy_trkInf_skpNxtFlg
	.align	2
	.global	stsmng_if_disdat_get_spy_trkInf_goToPlQueFlg
	.type	stsmng_if_disdat_get_spy_trkInf_goToPlQueFlg, %function
stsmng_if_disdat_get_spy_trkInf_goToPlQueFlg:
	.fnstart
.LFB60:
	.loc 1 1907 0
	.cfi_startproc
	@ args = 0, pretend = 0, frame = 0
	@ frame_needed = 0, uses_anonymous_args = 0
	stmfd	sp!, {r3, lr}
	.save {r3, lr}
.LCFI20:
	.cfi_def_cfa_offset 8
	.loc 1 1909 0
	.cfi_offset 14, -4
	.cfi_offset 3, -8
	bl	ui_stsMng_get_disp_data
	movw	r3, #:lower16:143851
	movt	r3, #:upper16:143851
	.loc 1 1911 0
	ldrb	r0, [r0, r3]	@ zero_extendqisi2
	ldmfd	sp!, {r3, pc}
	.cfi_endproc
.LFE60:
	.fnend
	.size	stsmng_if_disdat_get_spy_trkInf_goToPlQueFlg, .-stsmng_if_disdat_get_spy_trkInf_goToPlQueFlg
	.align	2
	.global	stsmng_if_disdat_get_spy_trkInf_goToAbmFlg
	.type	stsmng_if_disdat_get_spy_trkInf_goToAbmFlg, %function
stsmng_if_disdat_get_spy_trkInf_goToAbmFlg:
	.fnstart
.LFB59:
	.loc 1 1892 0
	.cfi_startproc
	@ args = 0, pretend = 0, frame = 0
	@ frame_needed = 0, uses_anonymous_args = 0
	stmfd	sp!, {r3, lr}
	.save {r3, lr}
.LCFI21:
	.cfi_def_cfa_offset 8
	.loc 1 1894 0
	.cfi_offset 14, -4
	.cfi_offset 3, -8
	bl	ui_stsMng_get_disp_data
	movw	r3, #:lower16:143850
	movt	r3, #:upper16:143850
	.loc 1 1896 0
	ldrb	r0, [r0, r3]	@ zero_extendqisi2
	ldmfd	sp!, {r3, pc}
	.cfi_endproc
.LFE59:
	.fnend
	.size	stsmng_if_disdat_get_spy_trkInf_goToAbmFlg, .-stsmng_if_disdat_get_spy_trkInf_goToAbmFlg
	.align	2
	.global	stsmng_if_disdat_get_spy_trkInf_goToAstFlg
	.type	stsmng_if_disdat_get_spy_trkInf_goToAstFlg, %function
stsmng_if_disdat_get_spy_trkInf_goToAstFlg:
	.fnstart
.LFB58:
	.loc 1 1877 0
	.cfi_startproc
	@ args = 0, pretend = 0, frame = 0
	@ frame_needed = 0, uses_anonymous_args = 0
	stmfd	sp!, {r3, lr}
	.save {r3, lr}
.LCFI22:
	.cfi_def_cfa_offset 8
	.loc 1 1879 0
	.cfi_offset 14, -4
	.cfi_offset 3, -8
	bl	ui_stsMng_get_disp_data
	movw	r3, #:lower16:143849
	movt	r3, #:upper16:143849
	.loc 1 1881 0
	ldrb	r0, [r0, r3]	@ zero_extendqisi2
	ldmfd	sp!, {r3, pc}
	.cfi_endproc
.LFE58:
	.fnend
	.size	stsmng_if_disdat_get_spy_trkInf_goToAstFlg, .-stsmng_if_disdat_get_spy_trkInf_goToAstFlg
	.align	2
	.global	stsmng_if_disdat_get_spy_trkInf_staRdoFlg
	.type	stsmng_if_disdat_get_spy_trkInf_staRdoFlg, %function
stsmng_if_disdat_get_spy_trkInf_staRdoFlg:
	.fnstart
.LFB57:
	.loc 1 1862 0
	.cfi_startproc
	@ args = 0, pretend = 0, frame = 0
	@ frame_needed = 0, uses_anonymous_args = 0
	stmfd	sp!, {r3, lr}
	.save {r3, lr}
.LCFI23:
	.cfi_def_cfa_offset 8
	.loc 1 1864 0
	.cfi_offset 14, -4
	.cfi_offset 3, -8
	bl	ui_stsMng_get_disp_data
	movw	r3, #:lower16:143848
	movt	r3, #:upper16:143848
	.loc 1 1866 0
	ldrb	r0, [r0, r3]	@ zero_extendqisi2
	ldmfd	sp!, {r3, pc}
	.cfi_endproc
.LFE57:
	.fnend
	.size	stsmng_if_disdat_get_spy_trkInf_staRdoFlg, .-stsmng_if_disdat_get_spy_trkInf_staRdoFlg
	.align	2
	.global	stsmng_if_disdat_get_spy_trkInf_ratFlg
	.type	stsmng_if_disdat_get_spy_trkInf_ratFlg, %function
stsmng_if_disdat_get_spy_trkInf_ratFlg:
	.fnstart
.LFB56:
	.loc 1 1847 0
	.cfi_startproc
	@ args = 0, pretend = 0, frame = 0
	@ frame_needed = 0, uses_anonymous_args = 0
	stmfd	sp!, {r3, lr}
	.save {r3, lr}
.LCFI24:
	.cfi_def_cfa_offset 8
	.loc 1 1849 0
	.cfi_offset 14, -4
	.cfi_offset 3, -8
	bl	ui_stsMng_get_disp_data
	movw	r3, #:lower16:143847
	movt	r3, #:upper16:143847
	.loc 1 1851 0
	ldrb	r0, [r0, r3]	@ zero_extendqisi2
	ldmfd	sp!, {r3, pc}
	.cfi_endproc
.LFE56:
	.fnend
	.size	stsmng_if_disdat_get_spy_trkInf_ratFlg, .-stsmng_if_disdat_get_spy_trkInf_ratFlg
	.align	2
	.global	stsmng_if_disdat_get_spy_trkInf_savFlg
	.type	stsmng_if_disdat_get_spy_trkInf_savFlg, %function
stsmng_if_disdat_get_spy_trkInf_savFlg:
	.fnstart
.LFB55:
	.loc 1 1832 0
	.cfi_startproc
	@ args = 0, pretend = 0, frame = 0
	@ frame_needed = 0, uses_anonymous_args = 0
	stmfd	sp!, {r3, lr}
	.save {r3, lr}
.LCFI25:
	.cfi_def_cfa_offset 8
	.loc 1 1834 0
	.cfi_offset 14, -4
	.cfi_offset 3, -8
	bl	ui_stsMng_get_disp_data
	movw	r3, #:lower16:143846
	movt	r3, #:upper16:143846
	.loc 1 1836 0
	ldrb	r0, [r0, r3]	@ zero_extendqisi2
	ldmfd	sp!, {r3, pc}
	.cfi_endproc
.LFE55:
	.fnend
	.size	stsmng_if_disdat_get_spy_trkInf_savFlg, .-stsmng_if_disdat_get_spy_trkInf_savFlg
	.align	2
	.global	stsmng_if_disdat_get_spy_trkInf_ratSts
	.type	stsmng_if_disdat_get_spy_trkInf_ratSts, %function
stsmng_if_disdat_get_spy_trkInf_ratSts:
	.fnstart
.LFB54:
	.loc 1 1817 0
	.cfi_startproc
	@ args = 0, pretend = 0, frame = 0
	@ frame_needed = 0, uses_anonymous_args = 0
	stmfd	sp!, {r3, lr}
	.save {r3, lr}
.LCFI26:
	.cfi_def_cfa_offset 8
	.loc 1 1819 0
	.cfi_offset 14, -4
	.cfi_offset 3, -8
	bl	ui_stsMng_get_disp_data
	movw	r3, #:lower16:143845
	movt	r3, #:upper16:143845
	.loc 1 1821 0
	ldrb	r0, [r0, r3]	@ zero_extendqisi2
	ldmfd	sp!, {r3, pc}
	.cfi_endproc
.LFE54:
	.fnend
	.size	stsmng_if_disdat_get_spy_trkInf_ratSts, .-stsmng_if_disdat_get_spy_trkInf_ratSts
	.align	2
	.global	stsmng_if_disdat_get_spy_trkInf_savSts
	.type	stsmng_if_disdat_get_spy_trkInf_savSts, %function
stsmng_if_disdat_get_spy_trkInf_savSts:
	.fnstart
.LFB53:
	.loc 1 1802 0
	.cfi_startproc
	@ args = 0, pretend = 0, frame = 0
	@ frame_needed = 0, uses_anonymous_args = 0
	stmfd	sp!, {r3, lr}
	.save {r3, lr}
.LCFI27:
	.cfi_def_cfa_offset 8
	.loc 1 1804 0
	.cfi_offset 14, -4
	.cfi_offset 3, -8
	bl	ui_stsMng_get_disp_data
	movw	r3, #:lower16:143844
	movt	r3, #:upper16:143844
	.loc 1 1806 0
	ldrb	r0, [r0, r3]	@ zero_extendqisi2
	ldmfd	sp!, {r3, pc}
	.cfi_endproc
.LFE53:
	.fnend
	.size	stsmng_if_disdat_get_spy_trkInf_savSts, .-stsmng_if_disdat_get_spy_trkInf_savSts
	.align	2
	.global	stsmng_if_disdat_get_spy_cntInf_shufFlg
	.type	stsmng_if_disdat_get_spy_cntInf_shufFlg, %function
stsmng_if_disdat_get_spy_cntInf_shufFlg:
	.fnstart
.LFB34:
	.loc 1 1409 0
	.cfi_startproc
	@ args = 0, pretend = 0, frame = 0
	@ frame_needed = 0, uses_anonymous_args = 0
	stmfd	sp!, {r3, lr}
	.save {r3, lr}
.LCFI28:
	.cfi_def_cfa_offset 8
	.loc 1 1411 0
	.cfi_offset 14, -4
	.cfi_offset 3, -8
	bl	ui_stsMng_get_disp_data
	movw	r3, #:lower16:139864
	movt	r3, #:upper16:139864
	.loc 1 1413 0
	ldrb	r0, [r0, r3]	@ zero_extendqisi2
	ldmfd	sp!, {r3, pc}
	.cfi_endproc
.LFE34:
	.fnend
	.size	stsmng_if_disdat_get_spy_cntInf_shufFlg, .-stsmng_if_disdat_get_spy_cntInf_shufFlg
	.align	2
	.global	stsmng_if_disdat_get_spy_cntInf_rptAllFlg
	.type	stsmng_if_disdat_get_spy_cntInf_rptAllFlg, %function
stsmng_if_disdat_get_spy_cntInf_rptAllFlg:
	.fnstart
.LFB33:
	.loc 1 1394 0
	.cfi_startproc
	@ args = 0, pretend = 0, frame = 0
	@ frame_needed = 0, uses_anonymous_args = 0
	stmfd	sp!, {r3, lr}
	.save {r3, lr}
.LCFI29:
	.cfi_def_cfa_offset 8
	.loc 1 1396 0
	.cfi_offset 14, -4
	.cfi_offset 3, -8
	bl	ui_stsMng_get_disp_data
	movw	r3, #:lower16:139863
	movt	r3, #:upper16:139863
	.loc 1 1398 0
	ldrb	r0, [r0, r3]	@ zero_extendqisi2
	ldmfd	sp!, {r3, pc}
	.cfi_endproc
.LFE33:
	.fnend
	.size	stsmng_if_disdat_get_spy_cntInf_rptAllFlg, .-stsmng_if_disdat_get_spy_cntInf_rptAllFlg
	.align	2
	.global	stsmng_if_disdat_get_spy_cntInf_rptOneFlg
	.type	stsmng_if_disdat_get_spy_cntInf_rptOneFlg, %function
stsmng_if_disdat_get_spy_cntInf_rptOneFlg:
	.fnstart
.LFB32:
	.loc 1 1379 0
	.cfi_startproc
	@ args = 0, pretend = 0, frame = 0
	@ frame_needed = 0, uses_anonymous_args = 0
	stmfd	sp!, {r3, lr}
	.save {r3, lr}
.LCFI30:
	.cfi_def_cfa_offset 8
	.loc 1 1381 0
	.cfi_offset 14, -4
	.cfi_offset 3, -8
	bl	ui_stsMng_get_disp_data
	movw	r3, #:lower16:139862
	movt	r3, #:upper16:139862
	.loc 1 1383 0
	ldrb	r0, [r0, r3]	@ zero_extendqisi2
	ldmfd	sp!, {r3, pc}
	.cfi_endproc
.LFE32:
	.fnend
	.size	stsmng_if_disdat_get_spy_cntInf_rptOneFlg, .-stsmng_if_disdat_get_spy_cntInf_rptOneFlg
	.align	2
	.global	stsmng_if_disdat_get_spy_cntInf_rptAllSts
	.type	stsmng_if_disdat_get_spy_cntInf_rptAllSts, %function
stsmng_if_disdat_get_spy_cntInf_rptAllSts:
	.fnstart
.LFB31:
	.loc 1 1347 0
	.cfi_startproc
	@ args = 0, pretend = 0, frame = 0
	@ frame_needed = 0, uses_anonymous_args = 0
	stmfd	sp!, {r3, lr}
	.save {r3, lr}
.LCFI31:
	.cfi_def_cfa_offset 8
	.loc 1 1349 0
	.cfi_offset 14, -4
	.cfi_offset 3, -8
	bl	ui_stsMng_get_disp_data
	movw	r3, #:lower16:139861
	movt	r3, #:upper16:139861
	.loc 1 1351 0
	ldrb	r0, [r0, r3]	@ zero_extendqisi2
	ldmfd	sp!, {r3, pc}
	.cfi_endproc
.LFE31:
	.fnend
	.size	stsmng_if_disdat_get_spy_cntInf_rptAllSts, .-stsmng_if_disdat_get_spy_cntInf_rptAllSts
	.align	2
	.global	stsmng_if_disdat_get_spy_cntInf_rptOneSts
	.type	stsmng_if_disdat_get_spy_cntInf_rptOneSts, %function
stsmng_if_disdat_get_spy_cntInf_rptOneSts:
	.fnstart
.LFB30:
	.loc 1 1332 0
	.cfi_startproc
	@ args = 0, pretend = 0, frame = 0
	@ frame_needed = 0, uses_anonymous_args = 0
	stmfd	sp!, {r3, lr}
	.save {r3, lr}
.LCFI32:
	.cfi_def_cfa_offset 8
	.loc 1 1334 0
	.cfi_offset 14, -4
	.cfi_offset 3, -8
	bl	ui_stsMng_get_disp_data
	movw	r3, #:lower16:139860
	movt	r3, #:upper16:139860
	.loc 1 1336 0
	ldrb	r0, [r0, r3]	@ zero_extendqisi2
	ldmfd	sp!, {r3, pc}
	.cfi_endproc
.LFE30:
	.fnend
	.size	stsmng_if_disdat_get_spy_cntInf_rptOneSts, .-stsmng_if_disdat_get_spy_cntInf_rptOneSts
	.align	2
	.global	stsmng_if_disdat_get_spy_rptSts
	.type	stsmng_if_disdat_get_spy_rptSts, %function
stsmng_if_disdat_get_spy_rptSts:
	.fnstart
.LFB27:
	.loc 1 1275 0
	.cfi_startproc
	@ args = 0, pretend = 0, frame = 0
	@ frame_needed = 0, uses_anonymous_args = 0
	stmfd	sp!, {r3, lr}
	.save {r3, lr}
.LCFI33:
	.cfi_def_cfa_offset 8
	.loc 1 1277 0
	.cfi_offset 14, -4
	.cfi_offset 3, -8
	bl	ui_stsMng_get_disp_data
	movw	r3, #:lower16:131559
	movt	r3, #:upper16:131559
	.loc 1 1279 0
	ldrb	r0, [r0, r3]	@ zero_extendqisi2
	ldmfd	sp!, {r3, pc}
	.cfi_endproc
.LFE27:
	.fnend
	.size	stsmng_if_disdat_get_spy_rptSts, .-stsmng_if_disdat_get_spy_rptSts
	.align	2
	.global	stsmng_if_disdat_get_spy_shufSts
	.type	stsmng_if_disdat_get_spy_shufSts, %function
stsmng_if_disdat_get_spy_shufSts:
	.fnstart
.LFB24:
	.loc 1 1218 0
	.cfi_startproc
	@ args = 0, pretend = 0, frame = 0
	@ frame_needed = 0, uses_anonymous_args = 0
	stmfd	sp!, {r3, lr}
	.save {r3, lr}
.LCFI34:
	.cfi_def_cfa_offset 8
	.loc 1 1220 0
	.cfi_offset 14, -4
	.cfi_offset 3, -8
	bl	ui_stsMng_get_disp_data
	movw	r3, #:lower16:131558
	movt	r3, #:upper16:131558
	.loc 1 1222 0
	ldrb	r0, [r0, r3]	@ zero_extendqisi2
	ldmfd	sp!, {r3, pc}
	.cfi_endproc
.LFE24:
	.fnend
	.size	stsmng_if_disdat_get_spy_shufSts, .-stsmng_if_disdat_get_spy_shufSts
	.align	2
	.global	stsmng_if_disdat_get_spy_plSpdSts
	.type	stsmng_if_disdat_get_spy_plSpdSts, %function
stsmng_if_disdat_get_spy_plSpdSts:
	.fnstart
.LFB19:
	.loc 1 1089 0
	.cfi_startproc
	@ args = 0, pretend = 0, frame = 0
	@ frame_needed = 0, uses_anonymous_args = 0
	stmfd	sp!, {r3, lr}
	.save {r3, lr}
.LCFI35:
	.cfi_def_cfa_offset 8
	.loc 1 1091 0
	.cfi_offset 14, -4
	.cfi_offset 3, -8
	bl	ui_stsMng_get_disp_data
	movw	r3, #:lower16:131557
	movt	r3, #:upper16:131557
	.loc 1 1093 0
	ldrb	r0, [r0, r3]	@ zero_extendqisi2
	ldmfd	sp!, {r3, pc}
	.cfi_endproc
.LFE19:
	.fnend
	.size	stsmng_if_disdat_get_spy_plSpdSts, .-stsmng_if_disdat_get_spy_plSpdSts
	.align	2
	.global	stsmng_if_disdat_get_spy_plSts
	.type	stsmng_if_disdat_get_spy_plSts, %function
stsmng_if_disdat_get_spy_plSts:
	.fnstart
.LFB18:
	.loc 1 1074 0
	.cfi_startproc
	@ args = 0, pretend = 0, frame = 0
	@ frame_needed = 0, uses_anonymous_args = 0
	stmfd	sp!, {r3, lr}
	.save {r3, lr}
.LCFI36:
	.cfi_def_cfa_offset 8
	.loc 1 1076 0
	.cfi_offset 14, -4
	.cfi_offset 3, -8
	bl	ui_stsMng_get_disp_data
	movw	r3, #:lower16:131556
	movt	r3, #:upper16:131556
	.loc 1 1078 0
	ldrb	r0, [r0, r3]	@ zero_extendqisi2
	ldmfd	sp!, {r3, pc}
	.cfi_endproc
.LFE18:
	.fnend
	.size	stsmng_if_disdat_get_spy_plSts, .-stsmng_if_disdat_get_spy_plSts
	.align	2
	.global	stsmng_if_disdat_get_spy_srcConSts
	.type	stsmng_if_disdat_get_spy_srcConSts, %function
stsmng_if_disdat_get_spy_srcConSts:
	.fnstart
.LFB17:
	.loc 1 1059 0
	.cfi_startproc
	@ args = 0, pretend = 0, frame = 0
	@ frame_needed = 0, uses_anonymous_args = 0
	stmfd	sp!, {r3, lr}
	.save {r3, lr}
.LCFI37:
	.cfi_def_cfa_offset 8
	.loc 1 1061 0
	.cfi_offset 14, -4
	.cfi_offset 3, -8
	bl	ui_stsMng_get_disp_data
	ldrb	r0, [r0, #413]	@ zero_extendqisi2
	.loc 1 1063 0
	ubfx	r0, r0, #5, #1
	ldmfd	sp!, {r3, pc}
	.cfi_endproc
.LFE17:
	.fnend
	.size	stsmng_if_disdat_get_spy_srcConSts, .-stsmng_if_disdat_get_spy_srcConSts
	.align	2
	.global	stsmng_if_disdat_get_spy_stsInf_lMsg
	.type	stsmng_if_disdat_get_spy_stsInf_lMsg, %function
stsmng_if_disdat_get_spy_stsInf_lMsg:
	.fnstart
.LFB90:
	.loc 1 2417 0
	.cfi_startproc
	@ args = 0, pretend = 0, frame = 0
	@ frame_needed = 0, uses_anonymous_args = 0
.LVL0:
	stmfd	sp!, {r4, lr}
	.save {r4, lr}
.LCFI38:
	.cfi_def_cfa_offset 8
	mov	r4, r0
	.cfi_offset 14, -4
	.cfi_offset 4, -8
	.loc 1 2419 0
	bl	ui_stsMng_get_disp_data
.LVL1:
	.loc 1 2421 0
	mov	r1, r0
.LVL2:
	cmp	r0, #0
	cmpne	r4, #0
	ldmeqfd	sp!, {r4, pc}
	.loc 1 2426 0
	mov	r0, r4
	add	r1, r1, #138240
.LVL3:
	add	r1, r1, #340
	mov	r2, #512
	bl	memcpy_b
	ldmfd	sp!, {r4, pc}
	.cfi_endproc
.LFE90:
	.fnend
	.size	stsmng_if_disdat_get_spy_stsInf_lMsg, .-stsmng_if_disdat_get_spy_stsInf_lMsg
	.align	2
	.global	stsmng_if_disdat_get_spy_stsInf_sMsg
	.type	stsmng_if_disdat_get_spy_stsInf_sMsg, %function
stsmng_if_disdat_get_spy_stsInf_sMsg:
	.fnstart
.LFB89:
	.loc 1 2396 0
	.cfi_startproc
	@ args = 0, pretend = 0, frame = 0
	@ frame_needed = 0, uses_anonymous_args = 0
.LVL4:
	stmfd	sp!, {r4, lr}
	.save {r4, lr}
.LCFI39:
	.cfi_def_cfa_offset 8
	mov	r4, r0
	.cfi_offset 14, -4
	.cfi_offset 4, -8
	.loc 1 2398 0
	bl	ui_stsMng_get_disp_data
.LVL5:
	.loc 1 2400 0
	mov	r1, r0
.LVL6:
	cmp	r0, #0
	cmpne	r4, #0
	ldmeqfd	sp!, {r4, pc}
	.loc 1 2405 0
	mov	r0, r4
	add	r1, r1, #138240
.LVL7:
	add	r1, r1, #276
	mov	r2, #64
	bl	memcpy_b
	ldmfd	sp!, {r4, pc}
	.cfi_endproc
.LFE89:
	.fnend
	.size	stsmng_if_disdat_get_spy_stsInf_sMsg, .-stsmng_if_disdat_get_spy_stsInf_sMsg
	.align	2
	.global	stsmng_if_disdat_get_spy_altInf_lMsg
	.type	stsmng_if_disdat_get_spy_altInf_lMsg, %function
stsmng_if_disdat_get_spy_altInf_lMsg:
	.fnstart
.LFB87:
	.loc 1 2360 0
	.cfi_startproc
	@ args = 0, pretend = 0, frame = 0
	@ frame_needed = 0, uses_anonymous_args = 0
.LVL8:
	stmfd	sp!, {r4, lr}
	.save {r4, lr}
.LCFI40:
	.cfi_def_cfa_offset 8
	mov	r4, r0
	.cfi_offset 14, -4
	.cfi_offset 4, -8
	.loc 1 2362 0
	bl	ui_stsMng_get_disp_data
.LVL9:
	.loc 1 2364 0
	mov	r1, r0
.LVL10:
	cmp	r0, #0
	cmpne	r4, #0
	ldmeqfd	sp!, {r4, pc}
	.loc 1 2369 0
	mov	r0, r4
	add	r1, r1, #138240
.LVL11:
	add	r1, r1, #208
	mov	r2, #512
	bl	memcpy_b
	ldmfd	sp!, {r4, pc}
	.cfi_endproc
.LFE87:
	.fnend
	.size	stsmng_if_disdat_get_spy_altInf_lMsg, .-stsmng_if_disdat_get_spy_altInf_lMsg
	.align	2
	.global	stsmng_if_disdat_get_spy_altInf_sMsg
	.type	stsmng_if_disdat_get_spy_altInf_sMsg, %function
stsmng_if_disdat_get_spy_altInf_sMsg:
	.fnstart
.LFB86:
	.loc 1 2339 0
	.cfi_startproc
	@ args = 0, pretend = 0, frame = 0
	@ frame_needed = 0, uses_anonymous_args = 0
.LVL12:
	stmfd	sp!, {r4, lr}
	.save {r4, lr}
.LCFI41:
	.cfi_def_cfa_offset 8
	mov	r4, r0
	.cfi_offset 14, -4
	.cfi_offset 4, -8
	.loc 1 2341 0
	bl	ui_stsMng_get_disp_data
.LVL13:
	.loc 1 2343 0
	mov	r1, r0
.LVL14:
	cmp	r0, #0
	cmpne	r4, #0
	ldmeqfd	sp!, {r4, pc}
	.loc 1 2348 0
	mov	r0, r4
	add	r1, r1, #138240
.LVL15:
	add	r1, r1, #144
	mov	r2, #64
	bl	memcpy_b
	ldmfd	sp!, {r4, pc}
	.cfi_endproc
.LFE86:
	.fnend
	.size	stsmng_if_disdat_get_spy_altInf_sMsg, .-stsmng_if_disdat_get_spy_altInf_sMsg
	.align	2
	.global	stsmng_if_disdat_get_spy_lstItmInf_subTtl
	.type	stsmng_if_disdat_get_spy_lstItmInf_subTtl, %function
stsmng_if_disdat_get_spy_lstItmInf_subTtl:
	.fnstart
.LFB82:
	.loc 1 2273 0
	.cfi_startproc
	@ args = 0, pretend = 0, frame = 0
	@ frame_needed = 0, uses_anonymous_args = 0
.LVL16:
	stmfd	sp!, {r4, lr}
	.save {r4, lr}
.LCFI42:
	.cfi_def_cfa_offset 8
	mov	r4, r0
	.cfi_offset 14, -4
	.cfi_offset 4, -8
	.loc 1 2275 0
	bl	ui_stsMng_get_disp_data
.LVL17:
	.loc 1 2277 0
	mov	r1, r0
.LVL18:
	cmp	r0, #0
	cmpne	r4, #0
	ldmeqfd	sp!, {r4, pc}
	.loc 1 2282 0
	mov	r0, r4
	add	r1, r1, #138240
.LVL19:
	add	r1, r1, #72
	mov	r2, #64
	bl	memcpy_b
	ldmfd	sp!, {r4, pc}
	.cfi_endproc
.LFE82:
	.fnend
	.size	stsmng_if_disdat_get_spy_lstItmInf_subTtl, .-stsmng_if_disdat_get_spy_lstItmInf_subTtl
	.align	2
	.global	stsmng_if_disdat_get_spy_lstItmInf_ttl
	.type	stsmng_if_disdat_get_spy_lstItmInf_ttl, %function
stsmng_if_disdat_get_spy_lstItmInf_ttl:
	.fnstart
.LFB81:
	.loc 1 2252 0
	.cfi_startproc
	@ args = 0, pretend = 0, frame = 0
	@ frame_needed = 0, uses_anonymous_args = 0
.LVL20:
	stmfd	sp!, {r4, lr}
	.save {r4, lr}
.LCFI43:
	.cfi_def_cfa_offset 8
	mov	r4, r0
	.cfi_offset 14, -4
	.cfi_offset 4, -8
	.loc 1 2254 0
	bl	ui_stsMng_get_disp_data
.LVL21:
	.loc 1 2256 0
	mov	r1, r0
.LVL22:
	cmp	r0, #0
	cmpne	r4, #0
	ldmeqfd	sp!, {r4, pc}
	.loc 1 2261 0
	mov	r0, r4
	add	r1, r1, #138240
.LVL23:
	add	r1, r1, #8
	mov	r2, #64
	bl	memcpy_b
	ldmfd	sp!, {r4, pc}
	.cfi_endproc
.LFE81:
	.fnend
	.size	stsmng_if_disdat_get_spy_lstItmInf_ttl, .-stsmng_if_disdat_get_spy_lstItmInf_ttl
	.align	2
	.global	stsmng_if_disdat_get_spy_lstItmInf_imgId
	.type	stsmng_if_disdat_get_spy_lstItmInf_imgId, %function
stsmng_if_disdat_get_spy_lstItmInf_imgId:
	.fnstart
.LFB80:
	.loc 1 2231 0
	.cfi_startproc
	@ args = 0, pretend = 0, frame = 0
	@ frame_needed = 0, uses_anonymous_args = 0
.LVL24:
	stmfd	sp!, {r4, lr}
	.save {r4, lr}
.LCFI44:
	.cfi_def_cfa_offset 8
	mov	r4, r0
	.cfi_offset 14, -4
	.cfi_offset 4, -8
	.loc 1 2233 0
	bl	ui_stsMng_get_disp_data
.LVL25:
	.loc 1 2235 0
	mov	r1, r0
.LVL26:
	cmp	r0, #0
	cmpne	r4, #0
	ldmeqfd	sp!, {r4, pc}
	.loc 1 2240 0
	mov	r0, r4
	add	r1, r1, #137216
.LVL27:
	add	r1, r1, #520
	mov	r2, #512
	bl	memcpy_b
	ldmfd	sp!, {r4, pc}
	.cfi_endproc
.LFE80:
	.fnend
	.size	stsmng_if_disdat_get_spy_lstItmInf_imgId, .-stsmng_if_disdat_get_spy_lstItmInf_imgId
	.align	2
	.global	stsmng_if_disdat_get_spy_lstItmInf_itmUrl
	.type	stsmng_if_disdat_get_spy_lstItmInf_itmUrl, %function
stsmng_if_disdat_get_spy_lstItmInf_itmUrl:
	.fnstart
.LFB79:
	.loc 1 2210 0
	.cfi_startproc
	@ args = 0, pretend = 0, frame = 0
	@ frame_needed = 0, uses_anonymous_args = 0
.LVL28:
	stmfd	sp!, {r4, lr}
	.save {r4, lr}
.LCFI45:
	.cfi_def_cfa_offset 8
	mov	r4, r0
	.cfi_offset 14, -4
	.cfi_offset 4, -8
	.loc 1 2212 0
	bl	ui_stsMng_get_disp_data
.LVL29:
	.loc 1 2214 0
	mov	r1, r0
.LVL30:
	cmp	r0, #0
	cmpne	r4, #0
	ldmeqfd	sp!, {r4, pc}
	.loc 1 2219 0
	mov	r0, r4
	add	r1, r1, #137216
.LVL31:
	add	r1, r1, #8
	mov	r2, #512
	bl	memcpy_b
	ldmfd	sp!, {r4, pc}
	.cfi_endproc
.LFE79:
	.fnend
	.size	stsmng_if_disdat_get_spy_lstItmInf_itmUrl, .-stsmng_if_disdat_get_spy_lstItmInf_itmUrl
	.align	2
	.global	stsmng_if_disdat_get_spy_lstItmInf_itmId
	.type	stsmng_if_disdat_get_spy_lstItmInf_itmId, %function
stsmng_if_disdat_get_spy_lstItmInf_itmId:
	.fnstart
.LFB78:
	.loc 1 2189 0
	.cfi_startproc
	@ args = 0, pretend = 0, frame = 0
	@ frame_needed = 0, uses_anonymous_args = 0
.LVL32:
	stmfd	sp!, {r4, lr}
	.save {r4, lr}
.LCFI46:
	.cfi_def_cfa_offset 8
	mov	r4, r0
	.cfi_offset 14, -4
	.cfi_offset 4, -8
	.loc 1 2191 0
	bl	ui_stsMng_get_disp_data
.LVL33:
	.loc 1 2193 0
	mov	r1, r0
.LVL34:
	cmp	r0, #0
	cmpne	r4, #0
	ldmeqfd	sp!, {r4, pc}
	.loc 1 2198 0
	mov	r0, r4
	add	r1, r1, #136192
.LVL35:
	add	r1, r1, #520
	mov	r2, #512
	bl	memcpy_b
	ldmfd	sp!, {r4, pc}
	.cfi_endproc
.LFE78:
	.fnend
	.size	stsmng_if_disdat_get_spy_lstItmInf_itmId, .-stsmng_if_disdat_get_spy_lstItmInf_itmId
	.align	2
	.global	stsmng_if_disdat_get_spy_thnlInf_imgId
	.type	stsmng_if_disdat_get_spy_thnlInf_imgId, %function
stsmng_if_disdat_get_spy_thnlInf_imgId:
	.fnstart
.LFB74:
	.loc 1 2123 0
	.cfi_startproc
	@ args = 0, pretend = 0, frame = 0
	@ frame_needed = 0, uses_anonymous_args = 0
.LVL36:
	stmfd	sp!, {r4, lr}
	.save {r4, lr}
.LCFI47:
	.cfi_def_cfa_offset 8
	mov	r4, r0
	.cfi_offset 14, -4
	.cfi_offset 4, -8
	.loc 1 2125 0
	bl	ui_stsMng_get_disp_data
.LVL37:
	.loc 1 2127 0
	mov	r1, r0
.LVL38:
	cmp	r0, #0
	cmpne	r4, #0
	ldmeqfd	sp!, {r4, pc}
	.loc 1 2132 0
	mov	r0, r4
	add	r1, r1, #136192
.LVL39:
	mov	r2, #512
	bl	memcpy_b
	ldmfd	sp!, {r4, pc}
	.cfi_endproc
.LFE74:
	.fnend
	.size	stsmng_if_disdat_get_spy_thnlInf_imgId, .-stsmng_if_disdat_get_spy_thnlInf_imgId
	.align	2
	.global	stsmng_if_disdat_get_spy_artwkInf_imgId
	.type	stsmng_if_disdat_get_spy_artwkInf_imgId, %function
stsmng_if_disdat_get_spy_artwkInf_imgId:
	.fnstart
.LFB70:
	.loc 1 2057 0
	.cfi_startproc
	@ args = 0, pretend = 0, frame = 0
	@ frame_needed = 0, uses_anonymous_args = 0
.LVL40:
	stmfd	sp!, {r4, lr}
	.save {r4, lr}
.LCFI48:
	.cfi_def_cfa_offset 8
	mov	r4, r0
	.cfi_offset 14, -4
	.cfi_offset 4, -8
	.loc 1 2059 0
	bl	ui_stsMng_get_disp_data
.LVL41:
	.loc 1 2061 0
	mov	r1, r0
.LVL42:
	cmp	r0, #0
	cmpne	r4, #0
	ldmeqfd	sp!, {r4, pc}
	.loc 1 2066 0
	mov	r0, r4
	add	r1, r1, #135168
.LVL43:
	add	r1, r1, #504
	mov	r2, #512
	bl	memcpy_b
	ldmfd	sp!, {r4, pc}
	.cfi_endproc
.LFE70:
	.fnend
	.size	stsmng_if_disdat_get_spy_artwkInf_imgId, .-stsmng_if_disdat_get_spy_artwkInf_imgId
	.align	2
	.global	stsmng_if_disdat_get_spy_trkInf_imgId
	.type	stsmng_if_disdat_get_spy_trkInf_imgId, %function
stsmng_if_disdat_get_spy_trkInf_imgId:
	.fnstart
.LFB52:
	.loc 1 1781 0
	.cfi_startproc
	@ args = 0, pretend = 0, frame = 0
	@ frame_needed = 0, uses_anonymous_args = 0
.LVL44:
	stmfd	sp!, {r4, lr}
	.save {r4, lr}
.LCFI49:
	.cfi_def_cfa_offset 8
	mov	r4, r0
	.cfi_offset 14, -4
	.cfi_offset 4, -8
	.loc 1 1783 0
	bl	ui_stsMng_get_disp_data
.LVL45:
	.loc 1 1785 0
	mov	r1, r0
.LVL46:
	cmp	r0, #0
	cmpne	r4, #0
	ldmeqfd	sp!, {r4, pc}
	.loc 1 1790 0
	mov	r0, r4
	add	r1, r1, #142336
.LVL47:
	add	r1, r1, #996
	mov	r2, #512
	bl	memcpy_b
	ldmfd	sp!, {r4, pc}
	.cfi_endproc
.LFE52:
	.fnend
	.size	stsmng_if_disdat_get_spy_trkInf_imgId, .-stsmng_if_disdat_get_spy_trkInf_imgId
	.align	2
	.global	stsmng_if_disdat_get_spy_trkInf_trkUri
	.type	stsmng_if_disdat_get_spy_trkInf_trkUri, %function
stsmng_if_disdat_get_spy_trkInf_trkUri:
	.fnstart
.LFB51:
	.loc 1 1760 0
	.cfi_startproc
	@ args = 0, pretend = 0, frame = 0
	@ frame_needed = 0, uses_anonymous_args = 0
.LVL48:
	stmfd	sp!, {r4, lr}
	.save {r4, lr}
.LCFI50:
	.cfi_def_cfa_offset 8
	mov	r4, r0
	.cfi_offset 14, -4
	.cfi_offset 4, -8
	.loc 1 1762 0
	bl	ui_stsMng_get_disp_data
.LVL49:
	.loc 1 1764 0
	mov	r1, r0
.LVL50:
	cmp	r0, #0
	cmpne	r4, #0
	ldmeqfd	sp!, {r4, pc}
	.loc 1 1769 0
	mov	r0, r4
	add	r1, r1, #142336
.LVL51:
	add	r1, r1, #484
	mov	r2, #512
	bl	memcpy_b
	ldmfd	sp!, {r4, pc}
	.cfi_endproc
.LFE51:
	.fnend
	.size	stsmng_if_disdat_get_spy_trkInf_trkUri, .-stsmng_if_disdat_get_spy_trkInf_trkUri
	.align	2
	.global	stsmng_if_disdat_get_spy_trkInf_trkId
	.type	stsmng_if_disdat_get_spy_trkInf_trkId, %function
stsmng_if_disdat_get_spy_trkInf_trkId:
	.fnstart
.LFB50:
	.loc 1 1739 0
	.cfi_startproc
	@ args = 0, pretend = 0, frame = 0
	@ frame_needed = 0, uses_anonymous_args = 0
.LVL52:
	stmfd	sp!, {r4, lr}
	.save {r4, lr}
.LCFI51:
	.cfi_def_cfa_offset 8
	mov	r4, r0
	.cfi_offset 14, -4
	.cfi_offset 4, -8
	.loc 1 1741 0
	bl	ui_stsMng_get_disp_data
.LVL53:
	.loc 1 1743 0
	mov	r1, r0
.LVL54:
	cmp	r0, #0
	cmpne	r4, #0
	ldmeqfd	sp!, {r4, pc}
	.loc 1 1748 0
	mov	r0, r4
	add	r1, r1, #141312
.LVL55:
	add	r1, r1, #996
	mov	r2, #512
	bl	memcpy_b
	ldmfd	sp!, {r4, pc}
	.cfi_endproc
.LFE50:
	.fnend
	.size	stsmng_if_disdat_get_spy_trkInf_trkId, .-stsmng_if_disdat_get_spy_trkInf_trkId
	.align	2
	.global	stsmng_if_disdat_get_spy_trkInf_trkKnd
	.type	stsmng_if_disdat_get_spy_trkInf_trkKnd, %function
stsmng_if_disdat_get_spy_trkInf_trkKnd:
	.fnstart
.LFB49:
	.loc 1 1718 0
	.cfi_startproc
	@ args = 0, pretend = 0, frame = 0
	@ frame_needed = 0, uses_anonymous_args = 0
.LVL56:
	stmfd	sp!, {r4, lr}
	.save {r4, lr}
.LCFI52:
	.cfi_def_cfa_offset 8
	mov	r4, r0
	.cfi_offset 14, -4
	.cfi_offset 4, -8
	.loc 1 1720 0
	bl	ui_stsMng_get_disp_data
.LVL57:
	.loc 1 1722 0
	mov	r1, r0
.LVL58:
	cmp	r0, #0
	cmpne	r4, #0
	ldmeqfd	sp!, {r4, pc}
	.loc 1 1727 0
	mov	r0, r4
	add	r1, r1, #141312
.LVL59:
	add	r1, r1, #932
	mov	r2, #64
	bl	memcpy_b
	ldmfd	sp!, {r4, pc}
	.cfi_endproc
.LFE49:
	.fnend
	.size	stsmng_if_disdat_get_spy_trkInf_trkKnd, .-stsmng_if_disdat_get_spy_trkInf_trkKnd
	.align	2
	.global	stsmng_if_disdat_get_spy_trkInf_trkNam
	.type	stsmng_if_disdat_get_spy_trkInf_trkNam, %function
stsmng_if_disdat_get_spy_trkInf_trkNam:
	.fnstart
.LFB48:
	.loc 1 1697 0
	.cfi_startproc
	@ args = 0, pretend = 0, frame = 0
	@ frame_needed = 0, uses_anonymous_args = 0
.LVL60:
	stmfd	sp!, {r4, lr}
	.save {r4, lr}
.LCFI53:
	.cfi_def_cfa_offset 8
	mov	r4, r0
	.cfi_offset 14, -4
	.cfi_offset 4, -8
	.loc 1 1699 0
	bl	ui_stsMng_get_disp_data
.LVL61:
	.loc 1 1701 0
	mov	r1, r0
.LVL62:
	cmp	r0, #0
	cmpne	r4, #0
	ldmeqfd	sp!, {r4, pc}
	.loc 1 1706 0
	mov	r0, r4
	add	r1, r1, #141312
.LVL63:
	add	r1, r1, #864
	mov	r2, #64
	bl	memcpy_b
	ldmfd	sp!, {r4, pc}
	.cfi_endproc
.LFE48:
	.fnend
	.size	stsmng_if_disdat_get_spy_trkInf_trkNam, .-stsmng_if_disdat_get_spy_trkInf_trkNam
	.align	2
	.global	stsmng_if_disdat_get_spy_trkInf_artistUri
	.type	stsmng_if_disdat_get_spy_trkInf_artistUri, %function
stsmng_if_disdat_get_spy_trkInf_artistUri:
	.fnstart
.LFB47:
	.loc 1 1676 0
	.cfi_startproc
	@ args = 0, pretend = 0, frame = 0
	@ frame_needed = 0, uses_anonymous_args = 0
.LVL64:
	stmfd	sp!, {r4, lr}
	.save {r4, lr}
.LCFI54:
	.cfi_def_cfa_offset 8
	mov	r4, r0
	.cfi_offset 14, -4
	.cfi_offset 4, -8
	.loc 1 1678 0
	bl	ui_stsMng_get_disp_data
.LVL65:
	.loc 1 1680 0
	mov	r1, r0
.LVL66:
	cmp	r0, #0
	cmpne	r4, #0
	ldmeqfd	sp!, {r4, pc}
	.loc 1 1685 0
	mov	r0, r4
	add	r1, r1, #141312
.LVL67:
	add	r1, r1, #348
	mov	r2, #512
	bl	memcpy_b
	ldmfd	sp!, {r4, pc}
	.cfi_endproc
.LFE47:
	.fnend
	.size	stsmng_if_disdat_get_spy_trkInf_artistUri, .-stsmng_if_disdat_get_spy_trkInf_artistUri
	.align	2
	.global	stsmng_if_disdat_get_spy_trkInf_artistId
	.type	stsmng_if_disdat_get_spy_trkInf_artistId, %function
stsmng_if_disdat_get_spy_trkInf_artistId:
	.fnstart
.LFB46:
	.loc 1 1655 0
	.cfi_startproc
	@ args = 0, pretend = 0, frame = 0
	@ frame_needed = 0, uses_anonymous_args = 0
.LVL68:
	stmfd	sp!, {r4, lr}
	.save {r4, lr}
.LCFI55:
	.cfi_def_cfa_offset 8
	mov	r4, r0
	.cfi_offset 14, -4
	.cfi_offset 4, -8
	.loc 1 1657 0
	bl	ui_stsMng_get_disp_data
.LVL69:
	.loc 1 1659 0
	mov	r1, r0
.LVL70:
	cmp	r0, #0
	cmpne	r4, #0
	ldmeqfd	sp!, {r4, pc}
	.loc 1 1664 0
	mov	r0, r4
	add	r1, r1, #140288
.LVL71:
	add	r1, r1, #860
	mov	r2, #512
	bl	memcpy_b
	ldmfd	sp!, {r4, pc}
	.cfi_endproc
.LFE46:
	.fnend
	.size	stsmng_if_disdat_get_spy_trkInf_artistId, .-stsmng_if_disdat_get_spy_trkInf_artistId
	.align	2
	.global	stsmng_if_disdat_get_spy_trkInf_artistKnd
	.type	stsmng_if_disdat_get_spy_trkInf_artistKnd, %function
stsmng_if_disdat_get_spy_trkInf_artistKnd:
	.fnstart
.LFB45:
	.loc 1 1634 0
	.cfi_startproc
	@ args = 0, pretend = 0, frame = 0
	@ frame_needed = 0, uses_anonymous_args = 0
.LVL72:
	stmfd	sp!, {r4, lr}
	.save {r4, lr}
.LCFI56:
	.cfi_def_cfa_offset 8
	mov	r4, r0
	.cfi_offset 14, -4
	.cfi_offset 4, -8
	.loc 1 1636 0
	bl	ui_stsMng_get_disp_data
.LVL73:
	.loc 1 1638 0
	mov	r1, r0
.LVL74:
	cmp	r0, #0
	cmpne	r4, #0
	ldmeqfd	sp!, {r4, pc}
	.loc 1 1643 0
	mov	r0, r4
	add	r1, r1, #140288
.LVL75:
	add	r1, r1, #796
	mov	r2, #64
	bl	memcpy_b
	ldmfd	sp!, {r4, pc}
	.cfi_endproc
.LFE45:
	.fnend
	.size	stsmng_if_disdat_get_spy_trkInf_artistKnd, .-stsmng_if_disdat_get_spy_trkInf_artistKnd
	.align	2
	.global	stsmng_if_disdat_get_spy_trkInf_artistNam
	.type	stsmng_if_disdat_get_spy_trkInf_artistNam, %function
stsmng_if_disdat_get_spy_trkInf_artistNam:
	.fnstart
.LFB44:
	.loc 1 1613 0
	.cfi_startproc
	@ args = 0, pretend = 0, frame = 0
	@ frame_needed = 0, uses_anonymous_args = 0
.LVL76:
	stmfd	sp!, {r4, lr}
	.save {r4, lr}
.LCFI57:
	.cfi_def_cfa_offset 8
	mov	r4, r0
	.cfi_offset 14, -4
	.cfi_offset 4, -8
	.loc 1 1615 0
	bl	ui_stsMng_get_disp_data
.LVL77:
	.loc 1 1617 0
	mov	r1, r0
.LVL78:
	cmp	r0, #0
	cmpne	r4, #0
	ldmeqfd	sp!, {r4, pc}
	.loc 1 1622 0
	mov	r0, r4
	add	r1, r1, #140288
.LVL79:
	add	r1, r1, #732
	mov	r2, #64
	bl	memcpy_b
	ldmfd	sp!, {r4, pc}
	.cfi_endproc
.LFE44:
	.fnend
	.size	stsmng_if_disdat_get_spy_trkInf_artistNam, .-stsmng_if_disdat_get_spy_trkInf_artistNam
	.align	2
	.global	stsmng_if_disdat_get_spy_trkInf_albmUri
	.type	stsmng_if_disdat_get_spy_trkInf_albmUri, %function
stsmng_if_disdat_get_spy_trkInf_albmUri:
	.fnstart
.LFB43:
	.loc 1 1592 0
	.cfi_startproc
	@ args = 0, pretend = 0, frame = 0
	@ frame_needed = 0, uses_anonymous_args = 0
.LVL80:
	stmfd	sp!, {r4, lr}
	.save {r4, lr}
.LCFI58:
	.cfi_def_cfa_offset 8
	mov	r4, r0
	.cfi_offset 14, -4
	.cfi_offset 4, -8
	.loc 1 1594 0
	bl	ui_stsMng_get_disp_data
.LVL81:
	.loc 1 1596 0
	mov	r1, r0
.LVL82:
	cmp	r0, #0
	cmpne	r4, #0
	ldmeqfd	sp!, {r4, pc}
	.loc 1 1601 0
	mov	r0, r4
	add	r1, r1, #140288
.LVL83:
	add	r1, r1, #220
	mov	r2, #512
	bl	memcpy_b
	ldmfd	sp!, {r4, pc}
	.cfi_endproc
.LFE43:
	.fnend
	.size	stsmng_if_disdat_get_spy_trkInf_albmUri, .-stsmng_if_disdat_get_spy_trkInf_albmUri
	.align	2
	.global	stsmng_if_disdat_get_spy_trkInf_albmId
	.type	stsmng_if_disdat_get_spy_trkInf_albmId, %function
stsmng_if_disdat_get_spy_trkInf_albmId:
	.fnstart
.LFB42:
	.loc 1 1571 0
	.cfi_startproc
	@ args = 0, pretend = 0, frame = 0
	@ frame_needed = 0, uses_anonymous_args = 0
.LVL84:
	stmfd	sp!, {r4, lr}
	.save {r4, lr}
.LCFI59:
	.cfi_def_cfa_offset 8
	mov	r4, r0
	.cfi_offset 14, -4
	.cfi_offset 4, -8
	.loc 1 1573 0
	bl	ui_stsMng_get_disp_data
.LVL85:
	.loc 1 1575 0
	mov	r1, r0
.LVL86:
	cmp	r0, #0
	cmpne	r4, #0
	ldmeqfd	sp!, {r4, pc}
	.loc 1 1580 0
	mov	r0, r4
	add	r1, r1, #139264
.LVL87:
	add	r1, r1, #732
	mov	r2, #512
	bl	memcpy_b
	ldmfd	sp!, {r4, pc}
	.cfi_endproc
.LFE42:
	.fnend
	.size	stsmng_if_disdat_get_spy_trkInf_albmId, .-stsmng_if_disdat_get_spy_trkInf_albmId
	.align	2
	.global	stsmng_if_disdat_get_spy_trkInf_albmKnd
	.type	stsmng_if_disdat_get_spy_trkInf_albmKnd, %function
stsmng_if_disdat_get_spy_trkInf_albmKnd:
	.fnstart
.LFB41:
	.loc 1 1550 0
	.cfi_startproc
	@ args = 0, pretend = 0, frame = 0
	@ frame_needed = 0, uses_anonymous_args = 0
.LVL88:
	stmfd	sp!, {r4, lr}
	.save {r4, lr}
.LCFI60:
	.cfi_def_cfa_offset 8
	mov	r4, r0
	.cfi_offset 14, -4
	.cfi_offset 4, -8
	.loc 1 1552 0
	bl	ui_stsMng_get_disp_data
.LVL89:
	.loc 1 1554 0
	mov	r1, r0
.LVL90:
	cmp	r0, #0
	cmpne	r4, #0
	ldmeqfd	sp!, {r4, pc}
	.loc 1 1559 0
	mov	r0, r4
	add	r1, r1, #139264
.LVL91:
	add	r1, r1, #668
	mov	r2, #64
	bl	memcpy_b
	ldmfd	sp!, {r4, pc}
	.cfi_endproc
.LFE41:
	.fnend
	.size	stsmng_if_disdat_get_spy_trkInf_albmKnd, .-stsmng_if_disdat_get_spy_trkInf_albmKnd
	.align	2
	.global	stsmng_if_disdat_get_spy_trkInf_albmNam
	.type	stsmng_if_disdat_get_spy_trkInf_albmNam, %function
stsmng_if_disdat_get_spy_trkInf_albmNam:
	.fnstart
.LFB40:
	.loc 1 1529 0
	.cfi_startproc
	@ args = 0, pretend = 0, frame = 0
	@ frame_needed = 0, uses_anonymous_args = 0
.LVL92:
	stmfd	sp!, {r4, lr}
	.save {r4, lr}
.LCFI61:
	.cfi_def_cfa_offset 8
	mov	r4, r0
	.cfi_offset 14, -4
	.cfi_offset 4, -8
	.loc 1 1531 0
	bl	ui_stsMng_get_disp_data
.LVL93:
	.loc 1 1533 0
	mov	r1, r0
.LVL94:
	cmp	r0, #0
	cmpne	r4, #0
	ldmeqfd	sp!, {r4, pc}
	.loc 1 1538 0
	mov	r0, r4
	add	r1, r1, #139264
.LVL95:
	add	r1, r1, #604
	mov	r2, #64
	bl	memcpy_b
	ldmfd	sp!, {r4, pc}
	.cfi_endproc
.LFE40:
	.fnend
	.size	stsmng_if_disdat_get_spy_trkInf_albmNam, .-stsmng_if_disdat_get_spy_trkInf_albmNam
	.align	2
	.global	stsmng_if_disdat_get_spy_cntInf_knd
	.type	stsmng_if_disdat_get_spy_cntInf_knd, %function
stsmng_if_disdat_get_spy_cntInf_knd:
	.fnstart
.LFB39:
	.loc 1 1508 0
	.cfi_startproc
	@ args = 0, pretend = 0, frame = 0
	@ frame_needed = 0, uses_anonymous_args = 0
.LVL96:
	stmfd	sp!, {r4, lr}
	.save {r4, lr}
.LCFI62:
	.cfi_def_cfa_offset 8
	mov	r4, r0
	.cfi_offset 14, -4
	.cfi_offset 4, -8
	.loc 1 1510 0
	bl	ui_stsMng_get_disp_data
.LVL97:
	.loc 1 1512 0
	mov	r1, r0
.LVL98:
	cmp	r0, #0
	cmpne	r4, #0
	ldmeqfd	sp!, {r4, pc}
	.loc 1 1517 0
	mov	r0, r4
	add	r1, r1, #139264
.LVL99:
	add	r1, r1, #532
	mov	r2, #64
	bl	memcpy_b
	ldmfd	sp!, {r4, pc}
	.cfi_endproc
.LFE39:
	.fnend
	.size	stsmng_if_disdat_get_spy_cntInf_knd, .-stsmng_if_disdat_get_spy_cntInf_knd
	.align	2
	.global	stsmng_if_disdat_get_spy_cntInf_subTtl
	.type	stsmng_if_disdat_get_spy_cntInf_subTtl, %function
stsmng_if_disdat_get_spy_cntInf_subTtl:
	.fnstart
.LFB38:
	.loc 1 1487 0
	.cfi_startproc
	@ args = 0, pretend = 0, frame = 0
	@ frame_needed = 0, uses_anonymous_args = 0
.LVL100:
	stmfd	sp!, {r4, lr}
	.save {r4, lr}
.LCFI63:
	.cfi_def_cfa_offset 8
	mov	r4, r0
	.cfi_offset 14, -4
	.cfi_offset 4, -8
	.loc 1 1489 0
	bl	ui_stsMng_get_disp_data
.LVL101:
	.loc 1 1491 0
	mov	r1, r0
.LVL102:
	cmp	r0, #0
	cmpne	r4, #0
	ldmeqfd	sp!, {r4, pc}
	.loc 1 1496 0
	mov	r0, r4
	add	r1, r1, #139264
.LVL103:
	add	r1, r1, #468
	mov	r2, #64
	bl	memcpy_b
	ldmfd	sp!, {r4, pc}
	.cfi_endproc
.LFE38:
	.fnend
	.size	stsmng_if_disdat_get_spy_cntInf_subTtl, .-stsmng_if_disdat_get_spy_cntInf_subTtl
	.align	2
	.global	stsmng_if_disdat_get_spy_cntInf_ttl
	.type	stsmng_if_disdat_get_spy_cntInf_ttl, %function
stsmng_if_disdat_get_spy_cntInf_ttl:
	.fnstart
.LFB37:
	.loc 1 1466 0
	.cfi_startproc
	@ args = 0, pretend = 0, frame = 0
	@ frame_needed = 0, uses_anonymous_args = 0
.LVL104:
	stmfd	sp!, {r4, lr}
	.save {r4, lr}
.LCFI64:
	.cfi_def_cfa_offset 8
	mov	r4, r0
	.cfi_offset 14, -4
	.cfi_offset 4, -8
	.loc 1 1468 0
	bl	ui_stsMng_get_disp_data
.LVL105:
	.loc 1 1470 0
	mov	r1, r0
.LVL106:
	cmp	r0, #0
	cmpne	r4, #0
	ldmeqfd	sp!, {r4, pc}
	.loc 1 1475 0
	mov	r0, r4
	add	r1, r1, #139264
.LVL107:
	add	r1, r1, #404
	mov	r2, #64
	bl	memcpy_b
	ldmfd	sp!, {r4, pc}
	.cfi_endproc
.LFE37:
	.fnend
	.size	stsmng_if_disdat_get_spy_cntInf_ttl, .-stsmng_if_disdat_get_spy_cntInf_ttl
	.align	2
	.global	stsmng_if_disdat_get_spy_cntInf_cnUrl
	.type	stsmng_if_disdat_get_spy_cntInf_cnUrl, %function
stsmng_if_disdat_get_spy_cntInf_cnUrl:
	.fnstart
.LFB36:
	.loc 1 1445 0
	.cfi_startproc
	@ args = 0, pretend = 0, frame = 0
	@ frame_needed = 0, uses_anonymous_args = 0
.LVL108:
	stmfd	sp!, {r4, lr}
	.save {r4, lr}
.LCFI65:
	.cfi_def_cfa_offset 8
	mov	r4, r0
	.cfi_offset 14, -4
	.cfi_offset 4, -8
	.loc 1 1447 0
	bl	ui_stsMng_get_disp_data
.LVL109:
	.loc 1 1449 0
	mov	r1, r0
.LVL110:
	cmp	r0, #0
	cmpne	r4, #0
	ldmeqfd	sp!, {r4, pc}
	.loc 1 1454 0
	mov	r0, r4
	add	r1, r1, #138240
.LVL111:
	add	r1, r1, #916
	mov	r2, #512
	bl	memcpy_b
	ldmfd	sp!, {r4, pc}
	.cfi_endproc
.LFE36:
	.fnend
	.size	stsmng_if_disdat_get_spy_cntInf_cnUrl, .-stsmng_if_disdat_get_spy_cntInf_cnUrl
	.align	2
	.global	stsmng_if_disdat_get_spy_cntInf_cntId
	.type	stsmng_if_disdat_get_spy_cntInf_cntId, %function
stsmng_if_disdat_get_spy_cntInf_cntId:
	.fnstart
.LFB35:
	.loc 1 1424 0
	.cfi_startproc
	@ args = 0, pretend = 0, frame = 0
	@ frame_needed = 0, uses_anonymous_args = 0
.LVL112:
	stmfd	sp!, {r4, lr}
	.save {r4, lr}
.LCFI66:
	.cfi_def_cfa_offset 8
	mov	r4, r0
	.cfi_offset 14, -4
	.cfi_offset 4, -8
	.loc 1 1426 0
	bl	ui_stsMng_get_disp_data
.LVL113:
	.loc 1 1428 0
	mov	r1, r0
.LVL114:
	cmp	r0, #0
	cmpne	r4, #0
	ldmeqfd	sp!, {r4, pc}
	.loc 1 1433 0
	mov	r0, r4
	add	r1, r1, #138240
.LVL115:
	add	r1, r1, #404
	mov	r2, #512
	bl	memcpy_b
	ldmfd	sp!, {r4, pc}
	.cfi_endproc
.LFE35:
	.fnend
	.size	stsmng_if_disdat_get_spy_cntInf_cntId, .-stsmng_if_disdat_get_spy_cntInf_cntId
	.align	2
	.global	stsmng_if_disdat_get_spy_rptInf_cntUrl
	.type	stsmng_if_disdat_get_spy_rptInf_cntUrl, %function
stsmng_if_disdat_get_spy_rptInf_cntUrl:
	.fnstart
.LFB29:
	.loc 1 1311 0
	.cfi_startproc
	@ args = 0, pretend = 0, frame = 0
	@ frame_needed = 0, uses_anonymous_args = 0
.LVL116:
	stmfd	sp!, {r4, lr}
	.save {r4, lr}
.LCFI67:
	.cfi_def_cfa_offset 8
	mov	r4, r0
	.cfi_offset 14, -4
	.cfi_offset 4, -8
	.loc 1 1313 0
	bl	ui_stsMng_get_disp_data
.LVL117:
	.loc 1 1315 0
	mov	r1, r0
.LVL118:
	cmp	r0, #0
	cmpne	r4, #0
	ldmeqfd	sp!, {r4, pc}
	.loc 1 1320 0
	mov	r0, r4
	add	r1, r1, #134144
.LVL119:
	add	r1, r1, #1016
	mov	r2, #512
	bl	memcpy_b
	ldmfd	sp!, {r4, pc}
	.cfi_endproc
.LFE29:
	.fnend
	.size	stsmng_if_disdat_get_spy_rptInf_cntUrl, .-stsmng_if_disdat_get_spy_rptInf_cntUrl
	.align	2
	.global	stsmng_if_disdat_get_spy_rptInf_cntId
	.type	stsmng_if_disdat_get_spy_rptInf_cntId, %function
stsmng_if_disdat_get_spy_rptInf_cntId:
	.fnstart
.LFB28:
	.loc 1 1290 0
	.cfi_startproc
	@ args = 0, pretend = 0, frame = 0
	@ frame_needed = 0, uses_anonymous_args = 0
.LVL120:
	stmfd	sp!, {r4, lr}
	.save {r4, lr}
.LCFI68:
	.cfi_def_cfa_offset 8
	mov	r4, r0
	.cfi_offset 14, -4
	.cfi_offset 4, -8
	.loc 1 1292 0
	bl	ui_stsMng_get_disp_data
.LVL121:
	.loc 1 1294 0
	mov	r1, r0
.LVL122:
	cmp	r0, #0
	cmpne	r4, #0
	ldmeqfd	sp!, {r4, pc}
	.loc 1 1299 0
	mov	r0, r4
	add	r1, r1, #134144
.LVL123:
	add	r1, r1, #504
	mov	r2, #512
	bl	memcpy_b
	ldmfd	sp!, {r4, pc}
	.cfi_endproc
.LFE28:
	.fnend
	.size	stsmng_if_disdat_get_spy_rptInf_cntId, .-stsmng_if_disdat_get_spy_rptInf_cntId
	.align	2
	.global	stsmng_if_disdat_get_spy_shufInf_CntUrl
	.type	stsmng_if_disdat_get_spy_shufInf_CntUrl, %function
stsmng_if_disdat_get_spy_shufInf_CntUrl:
	.fnstart
.LFB26:
	.loc 1 1254 0
	.cfi_startproc
	@ args = 0, pretend = 0, frame = 0
	@ frame_needed = 0, uses_anonymous_args = 0
.LVL124:
	stmfd	sp!, {r4, lr}
	.save {r4, lr}
.LCFI69:
	.cfi_def_cfa_offset 8
	mov	r4, r0
	.cfi_offset 14, -4
	.cfi_offset 4, -8
	.loc 1 1256 0
	bl	ui_stsMng_get_disp_data
.LVL125:
	.loc 1 1258 0
	mov	r1, r0
.LVL126:
	cmp	r0, #0
	cmpne	r4, #0
	ldmeqfd	sp!, {r4, pc}
	.loc 1 1263 0
	mov	r0, r4
	add	r1, r1, #133120
.LVL127:
	add	r1, r1, #1016
	mov	r2, #512
	bl	memcpy_b
	ldmfd	sp!, {r4, pc}
	.cfi_endproc
.LFE26:
	.fnend
	.size	stsmng_if_disdat_get_spy_shufInf_CntUrl, .-stsmng_if_disdat_get_spy_shufInf_CntUrl
	.align	2
	.global	stsmng_if_disdat_get_spy_shufInf_CntId
	.type	stsmng_if_disdat_get_spy_shufInf_CntId, %function
stsmng_if_disdat_get_spy_shufInf_CntId:
	.fnstart
.LFB25:
	.loc 1 1233 0
	.cfi_startproc
	@ args = 0, pretend = 0, frame = 0
	@ frame_needed = 0, uses_anonymous_args = 0
.LVL128:
	stmfd	sp!, {r4, lr}
	.save {r4, lr}
.LCFI70:
	.cfi_def_cfa_offset 8
	mov	r4, r0
	.cfi_offset 14, -4
	.cfi_offset 4, -8
	.loc 1 1235 0
	bl	ui_stsMng_get_disp_data
.LVL129:
	.loc 1 1237 0
	mov	r1, r0
.LVL130:
	cmp	r0, #0
	cmpne	r4, #0
	ldmeqfd	sp!, {r4, pc}
	.loc 1 1242 0
	mov	r0, r4
	add	r1, r1, #133120
.LVL131:
	add	r1, r1, #504
	mov	r2, #512
	bl	memcpy_b
	ldmfd	sp!, {r4, pc}
	.cfi_endproc
.LFE25:
	.fnend
	.size	stsmng_if_disdat_get_spy_shufInf_CntId, .-stsmng_if_disdat_get_spy_shufInf_CntId
	.align	2
	.global	stsmng_if_disdat_get_spy_ratInf_trkUrl
	.type	stsmng_if_disdat_get_spy_ratInf_trkUrl, %function
stsmng_if_disdat_get_spy_ratInf_trkUrl:
	.fnstart
.LFB23:
	.loc 1 1198 0
	.cfi_startproc
	@ args = 0, pretend = 0, frame = 0
	@ frame_needed = 0, uses_anonymous_args = 0
.LVL132:
	stmfd	sp!, {r4, lr}
	.save {r4, lr}
.LCFI71:
	.cfi_def_cfa_offset 8
	mov	r4, r0
	.cfi_offset 14, -4
	.cfi_offset 4, -8
	.loc 1 1200 0
	bl	ui_stsMng_get_disp_data
.LVL133:
	.loc 1 1202 0
	mov	r1, r0
.LVL134:
	cmp	r0, #0
	cmpne	r4, #0
	ldmeqfd	sp!, {r4, pc}
	.loc 1 1206 0
	mov	r0, r4
	add	r1, r1, #131072
.LVL135:
	add	r1, r1, #1016
	mov	r2, #512
	bl	memcpy_b
	ldmfd	sp!, {r4, pc}
	.cfi_endproc
.LFE23:
	.fnend
	.size	stsmng_if_disdat_get_spy_ratInf_trkUrl, .-stsmng_if_disdat_get_spy_ratInf_trkUrl
	.align	2
	.global	stsmng_if_disdat_get_spy_ratInf_trkId
	.type	stsmng_if_disdat_get_spy_ratInf_trkId, %function
stsmng_if_disdat_get_spy_ratInf_trkId:
	.fnstart
.LFB22:
	.loc 1 1178 0
	.cfi_startproc
	@ args = 0, pretend = 0, frame = 0
	@ frame_needed = 0, uses_anonymous_args = 0
.LVL136:
	stmfd	sp!, {r4, lr}
	.save {r4, lr}
.LCFI72:
	.cfi_def_cfa_offset 8
	mov	r4, r0
	.cfi_offset 14, -4
	.cfi_offset 4, -8
	.loc 1 1180 0
	bl	ui_stsMng_get_disp_data
.LVL137:
	.loc 1 1182 0
	mov	r1, r0
.LVL138:
	cmp	r0, #0
	cmpne	r4, #0
	ldmeqfd	sp!, {r4, pc}
	.loc 1 1186 0
	mov	r0, r4
	add	r1, r1, #132096
.LVL139:
	add	r1, r1, #504
	mov	r2, #512
	bl	memcpy_b
	ldmfd	sp!, {r4, pc}
	.cfi_endproc
.LFE22:
	.fnend
	.size	stsmng_if_disdat_get_spy_ratInf_trkId, .-stsmng_if_disdat_get_spy_ratInf_trkId
	.align	2
	.global	stsmng_if_disdat_get_spy_savInf_trkUrl
	.type	stsmng_if_disdat_get_spy_savInf_trkUrl, %function
stsmng_if_disdat_get_spy_savInf_trkUrl:
	.fnstart
.LFB21:
	.loc 1 1141 0
	.cfi_startproc
	@ args = 0, pretend = 0, frame = 0
	@ frame_needed = 0, uses_anonymous_args = 0
.LVL140:
	stmfd	sp!, {r4, lr}
	.save {r4, lr}
.LCFI73:
	.cfi_def_cfa_offset 8
	mov	r4, r0
	.cfi_offset 14, -4
	.cfi_offset 4, -8
	.loc 1 1143 0
	bl	ui_stsMng_get_disp_data
.LVL141:
	.loc 1 1145 0
	mov	r1, r0
.LVL142:
	cmp	r0, #0
	cmpne	r4, #0
	ldmeqfd	sp!, {r4, pc}
	.loc 1 1149 0
	mov	r0, r4
	add	r1, r1, #131072
.LVL143:
	add	r1, r1, #1016
	mov	r2, #512
	bl	memcpy_b
	ldmfd	sp!, {r4, pc}
	.cfi_endproc
.LFE21:
	.fnend
	.size	stsmng_if_disdat_get_spy_savInf_trkUrl, .-stsmng_if_disdat_get_spy_savInf_trkUrl
	.align	2
	.global	stsmng_if_disdat_get_spy_savInf_trkId
	.type	stsmng_if_disdat_get_spy_savInf_trkId, %function
stsmng_if_disdat_get_spy_savInf_trkId:
	.fnstart
.LFB20:
	.loc 1 1121 0
	.cfi_startproc
	@ args = 0, pretend = 0, frame = 0
	@ frame_needed = 0, uses_anonymous_args = 0
.LVL144:
	stmfd	sp!, {r4, lr}
	.save {r4, lr}
.LCFI74:
	.cfi_def_cfa_offset 8
	mov	r4, r0
	.cfi_offset 14, -4
	.cfi_offset 4, -8
	.loc 1 1123 0
	bl	ui_stsMng_get_disp_data
.LVL145:
	.loc 1 1125 0
	mov	r1, r0
.LVL146:
	cmp	r0, #0
	cmpne	r4, #0
	ldmeqfd	sp!, {r4, pc}
	.loc 1 1129 0
	mov	r0, r4
	add	r1, r1, #131072
.LVL147:
	add	r1, r1, #504
	mov	r2, #512
	bl	memcpy_b
	ldmfd	sp!, {r4, pc}
	.cfi_endproc
.LFE20:
	.fnend
	.size	stsmng_if_disdat_get_spy_savInf_trkId, .-stsmng_if_disdat_get_spy_savInf_trkId
	.align	2
	.global	stsMng_evt_nty_spy_src_off_fin
	.type	stsMng_evt_nty_spy_src_off_fin, %function
stsMng_evt_nty_spy_src_off_fin:
	.fnstart
.LFB16:
	.loc 1 1036 0
	.cfi_startproc
	@ args = 0, pretend = 0, frame = 0
	@ frame_needed = 0, uses_anonymous_args = 0
	stmfd	sp!, {r4, lr}
	.save {r4, lr}
.LCFI75:
	.cfi_def_cfa_offset 8
	.loc 1 1039 0
	.cfi_offset 14, -4
	.cfi_offset 4, -8
	bl	ui_malloc
	.loc 1 1040 0
	subs	r4, r0, #0
.LVL148:
	ldmeqfd	sp!, {r4, pc}
	.loc 1 1044 0
	movw	r0, #1111
	mov	r1, r4
	bl	ui_Set_Syscom_Event
	cmp	r0, #1
	ldmeqfd	sp!, {r4, pc}
	.loc 1 1046 0
	mov	r0, r4
	bl	ui_memoryfree
	ldmfd	sp!, {r4, pc}
	.cfi_endproc
.LFE16:
	.fnend
	.size	stsMng_evt_nty_spy_src_off_fin, .-stsMng_evt_nty_spy_src_off_fin
	.align	2
	.global	stsMng_evt_nty_spy_src_on_fin
	.type	stsMng_evt_nty_spy_src_on_fin, %function
stsMng_evt_nty_spy_src_on_fin:
	.fnstart
.LFB15:
	.loc 1 1013 0
	.cfi_startproc
	@ args = 0, pretend = 0, frame = 0
	@ frame_needed = 0, uses_anonymous_args = 0
	stmfd	sp!, {r4, lr}
	.save {r4, lr}
.LCFI76:
	.cfi_def_cfa_offset 8
	.loc 1 1016 0
	.cfi_offset 14, -4
	.cfi_offset 4, -8
	bl	ui_malloc
	.loc 1 1017 0
	subs	r4, r0, #0
.LVL149:
	ldmeqfd	sp!, {r4, pc}
	.loc 1 1021 0
	movw	r0, #1110
	mov	r1, r4
	bl	ui_Set_Syscom_Event
	cmp	r0, #1
	ldmeqfd	sp!, {r4, pc}
	.loc 1 1023 0
	mov	r0, r4
	bl	ui_memoryfree
	ldmfd	sp!, {r4, pc}
	.cfi_endproc
.LFE15:
	.fnend
	.size	stsMng_evt_nty_spy_src_on_fin, .-stsMng_evt_nty_spy_src_on_fin
	.align	2
	.global	stsMng_if_dircmd_spy_app_cntStsReq
	.type	stsMng_if_dircmd_spy_app_cntStsReq, %function
stsMng_if_dircmd_spy_app_cntStsReq:
	.fnstart
.LFB14:
	.loc 1 976 0
	.cfi_startproc
	@ args = 0, pretend = 0, frame = 24
	@ frame_needed = 0, uses_anonymous_args = 0
.LVL150:
	stmfd	sp!, {r4, r5, lr}
	.save {r4, r5, lr}
.LCFI77:
	.cfi_def_cfa_offset 12
	.pad #28
	sub	sp, sp, #28
.LCFI78:
	.cfi_def_cfa_offset 40
	mov	r4, r0
	.cfi_offset 14, -4
	.cfi_offset 5, -8
	.cfi_offset 4, -12
	.loc 1 981 0
	add	r0, sp, #8
.LVL151:
	mov	r1, #0
	mov	r2, #16
	bl	memset_b
	.loc 1 988 0
	cmp	r4, #3
	bls	.L195
	mov	r0, #0
.LVL152:
	b	.L196
.LVL153:
.L195:
	.loc 1 990 0
	mov	r3, #0
	str	r3, [sp, #8]
	.loc 1 991 0
	mvn	r3, #95
	strb	r3, [sp, #12]
	.loc 1 993 0
	mov	r5, #1
	strb	r5, [sp, #14]
	.loc 1 994 0
	add	r3, sp, #7
	str	r3, [sp, #16]
	.loc 1 983 0
	strb	r4, [sp, #7]
.LVL154:
	.loc 1 996 0
	add	r0, sp, #8
	bl	stsMng_if_publish_system_cmd
	mov	r0, r5
.LVL155:
.L196:
.LVL156:
	.loc 1 1002 0
	add	sp, sp, #28
	ldmfd	sp!, {r4, r5, pc}
	.cfi_endproc
.LFE14:
	.fnend
	.size	stsMng_if_dircmd_spy_app_cntStsReq, .-stsMng_if_dircmd_spy_app_cntStsReq
	.align	2
	.global	stsMng_if_dircmd_spy_rptStsSet_req
	.type	stsMng_if_dircmd_spy_rptStsSet_req, %function
stsMng_if_dircmd_spy_rptStsSet_req:
	.fnstart
.LFB12:
	.loc 1 795 0
	.cfi_startproc
	@ args = 4, pretend = 0, frame = 1272
	@ frame_needed = 0, uses_anonymous_args = 0
.LVL157:
	stmfd	sp!, {r4, r5, r6, r7, r8, r9, sl, fp, lr}
	.save {r4, r5, r6, r7, r8, r9, sl, fp, lr}
.LCFI79:
	.cfi_def_cfa_offset 36
	.pad #1264
	sub	sp, sp, #1264
.LCFI80:
	.cfi_def_cfa_offset 1300
	.pad #12
	sub	sp, sp, #12
.LCFI81:
	.cfi_def_cfa_offset 1312
	mov	r5, r0
	.cfi_offset 14, -4
	.cfi_offset 11, -8
	.cfi_offset 10, -12
	.cfi_offset 9, -16
	.cfi_offset 8, -20
	.cfi_offset 7, -24
	.cfi_offset 6, -28
	.cfi_offset 5, -32
	.cfi_offset 4, -36
	mov	r6, r1
	mov	r7, r2
	mov	r4, r3
	.loc 1 805 0
	add	r0, sp, #1248
.LVL158:
	add	r0, r0, #8
	mov	r1, #0
.LVL159:
	mov	r2, #16
.LVL160:
	bl	memset_b
.LVL161:
	.loc 1 806 0
	add	r0, sp, #232
	mov	r1, #0
	mov	r2, #1024
	bl	memset_b
	.loc 1 807 0
	add	r0, sp, #4
	mov	r1, #0
	mov	r2, #228
	bl	memset_b
	.loc 1 809 0
	ldr	r3, [sp, #1312]
	cmp	r3, #512
	cmpeq	r4, #512
	bne	.L199
.LVL162:
	cmp	r5, #2
	bhi	.L199
	.loc 1 811 0
	mov	r8, #0
	str	r8, [sp, #1256]
	.loc 1 812 0
	mvn	r3, #106
.LVL163:
	strb	r3, [sp, #1260]
	.loc 1 813 0
	mvn	r3, #27
	strb	r3, [sp, #1262]
	.loc 1 815 0
	add	r4, sp, #232
.LVL164:
	mov	r0, r4
	mov	r1, r6
	mov	r2, #512
	bl	memcpy_b
	.loc 1 816 0
	add	r0, r4, #512
	mov	r1, r7
	mov	r2, #512
	bl	memcpy_b
	.loc 1 820 0
	strb	r5, [sp, #1261]
	.loc 1 825 0
	strb	r8, [sp, #4]
	.loc 1 826 0
	mov	r3, #5
	strb	r3, [sp, #5]
	.loc 1 834 0
	strb	r8, [sp, #6]
	.loc 1 835 0
	mov	r3, #1
	strb	r3, [sp, #7]
	mov	r5, r4
.LVL165:
	.loc 1 845 0
	add	r4, sp, #4
	add	r0, r4, #4
	mov	r1, r5
	mov	r2, #224
	bl	memcpy_b
	.loc 1 847 0
	str	r4, [sp, #1264]
	.loc 1 849 0
	add	r0, sp, #1248
	add	r0, r0, #8
	bl	stsMng_if_publish_system_cmd
	.loc 1 852 0
	add	r0, r4, #2
	mov	r1, r8
	mov	r2, #226
	bl	memset_b
	mov	r4, #2
	.loc 1 845 0
	add	r6, sp, #4
.LVL166:
	add	r7, r6, #4
.LVL167:
	mov	r8, #224
	.loc 1 849 0
	add	sl, sp, #1248
	add	sl, sl, #8
	.loc 1 852 0
	add	r9, r6, r4
	mov	fp, #0
.L202:
	.loc 1 834 0
	mov	r3, r4, lsr #8
	strb	r3, [sp, #6]
	.loc 1 835 0
	strb	r4, [sp, #7]
	add	r5, r5, #224
	add	r4, r4, #1
	uxth	r4, r4
	.loc 1 839 0
	cmp	r4, #6
	bne	.L200
	.loc 1 841 0
	add	r4, sp, #4
	add	r0, r4, #4
	add	r1, sp, #1120
	add	r1, r1, #8
	mov	r2, #128
	bl	memcpy_b
	.loc 1 847 0
	str	r4, [sp, #1264]
	.loc 1 849 0
	add	r0, sp, #1248
	add	r0, r0, #8
	bl	stsMng_if_publish_system_cmd
	.loc 1 852 0
	add	r0, r4, #2
	mov	r1, #0
	mov	r2, #226
	bl	memset_b
	mov	r0, #1
.LVL168:
	b	.L201
.LVL169:
.L199:
	mov	r0, #0
.LVL170:
.L201:
.LVL171:
	.loc 1 859 0
	add	sp, sp, #252
	add	sp, sp, #1024
	ldmfd	sp!, {r4, r5, r6, r7, r8, r9, sl, fp, pc}
.LVL172:
.L200:
	.loc 1 845 0
	mov	r0, r7
	mov	r1, r5
	mov	r2, r8
	bl	memcpy_b
	.loc 1 847 0
	str	r6, [sp, #1264]
	.loc 1 849 0
	mov	r0, sl
	bl	stsMng_if_publish_system_cmd
	.loc 1 852 0
	mov	r0, r9
	mov	r1, fp
	mov	r2, #226
	bl	memset_b
	b	.L202
	.cfi_endproc
.LFE12:
	.fnend
	.size	stsMng_if_dircmd_spy_rptStsSet_req, .-stsMng_if_dircmd_spy_rptStsSet_req
	.align	2
	.global	stsMng_if_dircmd_spy_shfStsSet_req
	.type	stsMng_if_dircmd_spy_shfStsSet_req, %function
stsMng_if_dircmd_spy_shfStsSet_req:
	.fnstart
.LFB11:
	.loc 1 710 0
	.cfi_startproc
	@ args = 4, pretend = 0, frame = 1272
	@ frame_needed = 0, uses_anonymous_args = 0
.LVL173:
	stmfd	sp!, {r4, r5, r6, r7, r8, r9, sl, fp, lr}
	.save {r4, r5, r6, r7, r8, r9, sl, fp, lr}
.LCFI82:
	.cfi_def_cfa_offset 36
	.pad #1264
	sub	sp, sp, #1264
.LCFI83:
	.cfi_def_cfa_offset 1300
	.pad #12
	sub	sp, sp, #12
.LCFI84:
	.cfi_def_cfa_offset 1312
	mov	r5, r0
	.cfi_offset 14, -4
	.cfi_offset 11, -8
	.cfi_offset 10, -12
	.cfi_offset 9, -16
	.cfi_offset 8, -20
	.cfi_offset 7, -24
	.cfi_offset 6, -28
	.cfi_offset 5, -32
	.cfi_offset 4, -36
	mov	r6, r1
	mov	r7, r2
	mov	r4, r3
	.loc 1 720 0
	add	r0, sp, #1248
.LVL174:
	add	r0, r0, #8
	mov	r1, #0
.LVL175:
	mov	r2, #16
.LVL176:
	bl	memset_b
.LVL177:
	.loc 1 721 0
	add	r0, sp, #232
	mov	r1, #0
	mov	r2, #1024
	bl	memset_b
	.loc 1 722 0
	add	r0, sp, #4
	mov	r1, #0
	mov	r2, #228
	bl	memset_b
	.loc 1 724 0
	ldr	r3, [sp, #1312]
	cmp	r3, #512
	cmpeq	r4, #512
	bne	.L205
.LVL178:
	cmp	r5, #1
	bhi	.L205
	.loc 1 726 0
	mov	r8, #0
	str	r8, [sp, #1256]
	.loc 1 727 0
	mvn	r3, #108
.LVL179:
	strb	r3, [sp, #1260]
	.loc 1 728 0
	mvn	r3, #27
	strb	r3, [sp, #1262]
	.loc 1 730 0
	add	r4, sp, #232
.LVL180:
	mov	r0, r4
	mov	r1, r6
	mov	r2, #512
	bl	memcpy_b
	.loc 1 731 0
	add	r0, r4, #512
	mov	r1, r7
	mov	r2, #512
	bl	memcpy_b
	.loc 1 735 0
	strb	r5, [sp, #1261]
	.loc 1 740 0
	strb	r8, [sp, #4]
	.loc 1 741 0
	mov	r3, #5
	strb	r3, [sp, #5]
	.loc 1 749 0
	strb	r8, [sp, #6]
	.loc 1 750 0
	mov	r3, #1
	strb	r3, [sp, #7]
	mov	r5, r4
.LVL181:
	.loc 1 760 0
	add	r4, sp, #4
	add	r0, r4, #4
	mov	r1, r5
	mov	r2, #224
	bl	memcpy_b
	.loc 1 762 0
	str	r4, [sp, #1264]
	.loc 1 764 0
	add	r0, sp, #1248
	add	r0, r0, #8
	bl	stsMng_if_publish_system_cmd
	.loc 1 767 0
	add	r0, r4, #2
	mov	r1, r8
	mov	r2, #226
	bl	memset_b
	mov	r4, #2
	.loc 1 760 0
	add	r6, sp, #4
.LVL182:
	add	r7, r6, #4
.LVL183:
	mov	r8, #224
	.loc 1 764 0
	add	sl, sp, #1248
	add	sl, sl, #8
	.loc 1 767 0
	add	r9, r6, r4
	mov	fp, #0
.L208:
	.loc 1 749 0
	mov	r3, r4, lsr #8
	strb	r3, [sp, #6]
	.loc 1 750 0
	strb	r4, [sp, #7]
	add	r5, r5, #224
	add	r4, r4, #1
	uxth	r4, r4
	.loc 1 754 0
	cmp	r4, #6
	bne	.L206
	.loc 1 756 0
	add	r4, sp, #4
	add	r0, r4, #4
	add	r1, sp, #1120
	add	r1, r1, #8
	mov	r2, #128
	bl	memcpy_b
	.loc 1 762 0
	str	r4, [sp, #1264]
	.loc 1 764 0
	add	r0, sp, #1248
	add	r0, r0, #8
	bl	stsMng_if_publish_system_cmd
	.loc 1 767 0
	add	r0, r4, #2
	mov	r1, #0
	mov	r2, #226
	bl	memset_b
	mov	r0, #1
.LVL184:
	b	.L207
.LVL185:
.L205:
	mov	r0, #0
.LVL186:
.L207:
.LVL187:
	.loc 1 774 0
	add	sp, sp, #252
	add	sp, sp, #1024
	ldmfd	sp!, {r4, r5, r6, r7, r8, r9, sl, fp, pc}
.LVL188:
.L206:
	.loc 1 760 0
	mov	r0, r7
	mov	r1, r5
	mov	r2, r8
	bl	memcpy_b
	.loc 1 762 0
	str	r6, [sp, #1264]
	.loc 1 764 0
	mov	r0, sl
	bl	stsMng_if_publish_system_cmd
	.loc 1 767 0
	mov	r0, r9
	mov	r1, fp
	mov	r2, #226
	bl	memset_b
	b	.L208
	.cfi_endproc
.LFE11:
	.fnend
	.size	stsMng_if_dircmd_spy_shfStsSet_req, .-stsMng_if_dircmd_spy_shfStsSet_req
	.align	2
	.global	stsMng_if_dircmd_spy_ratStsSet_req
	.type	stsMng_if_dircmd_spy_ratStsSet_req, %function
stsMng_if_dircmd_spy_ratStsSet_req:
	.fnstart
.LFB10:
	.loc 1 625 0
	.cfi_startproc
	@ args = 4, pretend = 0, frame = 1272
	@ frame_needed = 0, uses_anonymous_args = 0
.LVL189:
	stmfd	sp!, {r4, r5, r6, r7, r8, r9, sl, fp, lr}
	.save {r4, r5, r6, r7, r8, r9, sl, fp, lr}
.LCFI85:
	.cfi_def_cfa_offset 36
	.pad #1264
	sub	sp, sp, #1264
.LCFI86:
	.cfi_def_cfa_offset 1300
	.pad #12
	sub	sp, sp, #12
.LCFI87:
	.cfi_def_cfa_offset 1312
	mov	r5, r0
	.cfi_offset 14, -4
	.cfi_offset 11, -8
	.cfi_offset 10, -12
	.cfi_offset 9, -16
	.cfi_offset 8, -20
	.cfi_offset 7, -24
	.cfi_offset 6, -28
	.cfi_offset 5, -32
	.cfi_offset 4, -36
	mov	r6, r1
	mov	r7, r2
	mov	r4, r3
	.loc 1 635 0
	add	r0, sp, #1248
.LVL190:
	add	r0, r0, #8
	mov	r1, #0
.LVL191:
	mov	r2, #16
.LVL192:
	bl	memset_b
.LVL193:
	.loc 1 636 0
	add	r0, sp, #232
	mov	r1, #0
	mov	r2, #1024
	bl	memset_b
	.loc 1 637 0
	add	r0, sp, #4
	mov	r1, #0
	mov	r2, #228
	bl	memset_b
	.loc 1 639 0
	ldr	r3, [sp, #1312]
	cmp	r3, #512
	cmpeq	r4, #512
	bne	.L211
.LVL194:
	cmp	r5, #2
	bhi	.L211
	.loc 1 641 0
	mov	r8, #0
	str	r8, [sp, #1256]
	.loc 1 642 0
	mvn	r3, #110
.LVL195:
	strb	r3, [sp, #1260]
	.loc 1 643 0
	mvn	r3, #27
	strb	r3, [sp, #1262]
	.loc 1 645 0
	add	r4, sp, #232
.LVL196:
	mov	r0, r4
	mov	r1, r6
	mov	r2, #512
	bl	memcpy_b
	.loc 1 646 0
	add	r0, r4, #512
	mov	r1, r7
	mov	r2, #512
	bl	memcpy_b
	.loc 1 650 0
	strb	r5, [sp, #1261]
	.loc 1 655 0
	strb	r8, [sp, #4]
	.loc 1 656 0
	mov	r3, #5
	strb	r3, [sp, #5]
	.loc 1 664 0
	strb	r8, [sp, #6]
	.loc 1 665 0
	mov	r3, #1
	strb	r3, [sp, #7]
	mov	r5, r4
.LVL197:
	.loc 1 675 0
	add	r4, sp, #4
	add	r0, r4, #4
	mov	r1, r5
	mov	r2, #224
	bl	memcpy_b
	.loc 1 677 0
	str	r4, [sp, #1264]
	.loc 1 679 0
	add	r0, sp, #1248
	add	r0, r0, #8
	bl	stsMng_if_publish_system_cmd
	.loc 1 682 0
	add	r0, r4, #2
	mov	r1, r8
	mov	r2, #226
	bl	memset_b
	mov	r4, #2
	.loc 1 675 0
	add	r6, sp, #4
.LVL198:
	add	r7, r6, #4
.LVL199:
	mov	r8, #224
	.loc 1 679 0
	add	sl, sp, #1248
	add	sl, sl, #8
	.loc 1 682 0
	add	r9, r6, r4
	mov	fp, #0
.L214:
	.loc 1 664 0
	mov	r3, r4, lsr #8
	strb	r3, [sp, #6]
	.loc 1 665 0
	strb	r4, [sp, #7]
	add	r5, r5, #224
	add	r4, r4, #1
	uxth	r4, r4
	.loc 1 669 0
	cmp	r4, #6
	bne	.L212
	.loc 1 671 0
	add	r4, sp, #4
	add	r0, r4, #4
	add	r1, sp, #1120
	add	r1, r1, #8
	mov	r2, #128
	bl	memcpy_b
	.loc 1 677 0
	str	r4, [sp, #1264]
	.loc 1 679 0
	add	r0, sp, #1248
	add	r0, r0, #8
	bl	stsMng_if_publish_system_cmd
	.loc 1 682 0
	add	r0, r4, #2
	mov	r1, #0
	mov	r2, #226
	bl	memset_b
	mov	r0, #1
.LVL200:
	b	.L213
.LVL201:
.L211:
	mov	r0, #0
.LVL202:
.L213:
.LVL203:
	.loc 1 689 0
	add	sp, sp, #252
	add	sp, sp, #1024
	ldmfd	sp!, {r4, r5, r6, r7, r8, r9, sl, fp, pc}
.LVL204:
.L212:
	.loc 1 675 0
	mov	r0, r7
	mov	r1, r5
	mov	r2, r8
	bl	memcpy_b
	.loc 1 677 0
	str	r6, [sp, #1264]
	.loc 1 679 0
	mov	r0, sl
	bl	stsMng_if_publish_system_cmd
	.loc 1 682 0
	mov	r0, r9
	mov	r1, fp
	mov	r2, #226
	bl	memset_b
	b	.L214
	.cfi_endproc
.LFE10:
	.fnend
	.size	stsMng_if_dircmd_spy_ratStsSet_req, .-stsMng_if_dircmd_spy_ratStsSet_req
	.align	2
	.global	stsMng_if_dircmd_spy_ratStsGet_req
	.type	stsMng_if_dircmd_spy_ratStsGet_req, %function
stsMng_if_dircmd_spy_ratStsGet_req:
	.fnstart
.LFB9:
	.loc 1 550 0
	.cfi_startproc
	@ args = 0, pretend = 0, frame = 248
	@ frame_needed = 0, uses_anonymous_args = 0
.LVL205:
	stmfd	sp!, {r4, r5, r6, r7, r8, r9, sl, fp, lr}
	.save {r4, r5, r6, r7, r8, r9, sl, fp, lr}
.LCFI88:
	.cfi_def_cfa_offset 36
	.pad #252
	sub	sp, sp, #252
.LCFI89:
	.cfi_def_cfa_offset 288
	mov	r7, r0
	.cfi_offset 14, -4
	.cfi_offset 11, -8
	.cfi_offset 10, -12
	.cfi_offset 9, -16
	.cfi_offset 8, -20
	.cfi_offset 7, -24
	.cfi_offset 6, -28
	.cfi_offset 5, -32
	.cfi_offset 4, -36
	mov	r4, r1
	.loc 1 559 0
	add	r0, sp, #232
.LVL206:
	mov	r1, #0
.LVL207:
	mov	r2, #16
	bl	memset_b
	.loc 1 560 0
	add	r0, sp, #4
	mov	r1, #0
	mov	r2, #228
	bl	memset_b
	.loc 1 567 0
	cmp	r4, #512
	beq	.L217
	mov	r0, #0
.LVL208:
	b	.L218
.LVL209:
.L217:
	.loc 1 569 0
	mov	r6, #0
	str	r6, [sp, #232]
	.loc 1 570 0
	mvn	r3, #111
	strb	r3, [sp, #236]
	.loc 1 571 0
	mvn	r3, #27
	strb	r3, [sp, #238]
	.loc 1 565 0
	strb	r6, [sp, #4]
	.loc 1 566 0
	mov	r3, #3
	strb	r3, [sp, #5]
	.loc 1 579 0
	strb	r6, [sp, #6]
	.loc 1 580 0
	mov	r3, #1
	strb	r3, [sp, #7]
	mov	r4, r7
.LVL210:
	.loc 1 590 0
	add	r5, sp, #4
	add	r0, r5, #4
	mov	r1, r7
	mov	r2, #224
	bl	memcpy_b
	.loc 1 592 0
	str	r5, [sp, #240]
	.loc 1 594 0
	add	r0, sp, #232
	bl	stsMng_if_publish_system_cmd
	.loc 1 597 0
	add	r0, r5, #2
	mov	r1, r6
	mov	r2, #226
	bl	memset_b
	mov	r5, #2
	.loc 1 590 0
	add	r6, sp, #4
	add	r8, r6, #4
	mov	sl, #224
	.loc 1 594 0
	add	r9, sp, #232
	.loc 1 597 0
	add	fp, r6, r5
.L220:
	.loc 1 579 0
	mov	r3, r5, lsr #8
	strb	r3, [sp, #6]
	.loc 1 580 0
	strb	r5, [sp, #7]
	add	r4, r4, #224
	add	r5, r5, #1
	uxth	r5, r5
	.loc 1 584 0
	cmp	r5, #4
	bne	.L219
	.loc 1 586 0
	add	r4, sp, #4
	add	r0, r4, #4
	add	r1, r7, #448
	mov	r2, #64
	bl	memcpy_b
	.loc 1 592 0
	str	r4, [sp, #240]
	.loc 1 594 0
	add	r0, sp, #232
	bl	stsMng_if_publish_system_cmd
	.loc 1 597 0
	add	r0, r4, #2
	mov	r1, #0
	mov	r2, #226
	bl	memset_b
	mov	r0, #1
.LVL211:
.L218:
.LVL212:
	.loc 1 604 0
	add	sp, sp, #252
	ldmfd	sp!, {r4, r5, r6, r7, r8, r9, sl, fp, pc}
.LVL213:
.L219:
	.loc 1 590 0
	mov	r0, r8
	mov	r1, r4
	mov	r2, sl
	bl	memcpy_b
	.loc 1 592 0
	str	r6, [sp, #240]
	.loc 1 594 0
	mov	r0, r9
	bl	stsMng_if_publish_system_cmd
	.loc 1 597 0
	mov	r0, fp
	mov	r1, #0
	mov	r2, #226
	bl	memset_b
	b	.L220
	.cfi_endproc
.LFE9:
	.fnend
	.size	stsMng_if_dircmd_spy_ratStsGet_req, .-stsMng_if_dircmd_spy_ratStsGet_req
	.align	2
	.global	stsMng_if_dircmd_spy_savStsSet_req
	.type	stsMng_if_dircmd_spy_savStsSet_req, %function
stsMng_if_dircmd_spy_savStsSet_req:
	.fnstart
.LFB8:
	.loc 1 471 0
	.cfi_startproc
	@ args = 4, pretend = 0, frame = 1272
	@ frame_needed = 0, uses_anonymous_args = 0
.LVL214:
	stmfd	sp!, {r4, r5, r6, r7, r8, r9, sl, fp, lr}
	.save {r4, r5, r6, r7, r8, r9, sl, fp, lr}
.LCFI90:
	.cfi_def_cfa_offset 36
	.pad #1264
	sub	sp, sp, #1264
.LCFI91:
	.cfi_def_cfa_offset 1300
	.pad #12
	sub	sp, sp, #12
.LCFI92:
	.cfi_def_cfa_offset 1312
	mov	r5, r0
	.cfi_offset 14, -4
	.cfi_offset 11, -8
	.cfi_offset 10, -12
	.cfi_offset 9, -16
	.cfi_offset 8, -20
	.cfi_offset 7, -24
	.cfi_offset 6, -28
	.cfi_offset 5, -32
	.cfi_offset 4, -36
	mov	r6, r1
	mov	r7, r2
	mov	r4, r3
	.loc 1 481 0
	add	r0, sp, #1248
.LVL215:
	add	r0, r0, #8
	mov	r1, #0
.LVL216:
	mov	r2, #16
.LVL217:
	bl	memset_b
.LVL218:
	.loc 1 482 0
	add	r0, sp, #232
	mov	r1, #0
	mov	r2, #1024
	bl	memset_b
	.loc 1 483 0
	add	r0, sp, #4
	mov	r1, #0
	mov	r2, #228
	bl	memset_b
	.loc 1 485 0
	ldr	r3, [sp, #1312]
	cmp	r3, #512
	cmpeq	r4, #512
	bne	.L223
.LVL219:
	cmp	r5, #1
	bhi	.L223
	.loc 1 487 0
	mov	r8, #0
	str	r8, [sp, #1256]
	.loc 1 488 0
	mvn	r3, #112
.LVL220:
	strb	r3, [sp, #1260]
	.loc 1 489 0
	mvn	r3, #27
	strb	r3, [sp, #1262]
	.loc 1 491 0
	add	r4, sp, #232
.LVL221:
	mov	r0, r4
	mov	r1, r6
	mov	r2, #512
	bl	memcpy_b
	.loc 1 492 0
	add	r0, r4, #512
	mov	r1, r7
	mov	r2, #512
	bl	memcpy_b
	.loc 1 496 0
	strb	r5, [sp, #1261]
	.loc 1 501 0
	strb	r8, [sp, #4]
	.loc 1 502 0
	mov	r3, #5
	strb	r3, [sp, #5]
	.loc 1 510 0
	strb	r8, [sp, #6]
	.loc 1 511 0
	mov	r3, #1
	strb	r3, [sp, #7]
	mov	r5, r4
.LVL222:
	.loc 1 521 0
	add	r4, sp, #4
	add	r0, r4, #4
	mov	r1, r5
	mov	r2, #224
	bl	memcpy_b
	.loc 1 523 0
	str	r4, [sp, #1264]
	.loc 1 525 0
	add	r0, sp, #1248
	add	r0, r0, #8
	bl	stsMng_if_publish_system_cmd
	.loc 1 528 0
	add	r0, r4, #2
	mov	r1, r8
	mov	r2, #226
	bl	memset_b
	mov	r4, #2
	.loc 1 521 0
	add	r6, sp, #4
.LVL223:
	add	r7, r6, #4
.LVL224:
	mov	r8, #224
	.loc 1 525 0
	add	sl, sp, #1248
	add	sl, sl, #8
	.loc 1 528 0
	add	r9, r6, r4
	mov	fp, #0
.L226:
	.loc 1 510 0
	mov	r3, r4, lsr #8
	strb	r3, [sp, #6]
	.loc 1 511 0
	strb	r4, [sp, #7]
	add	r5, r5, #224
	add	r4, r4, #1
	uxth	r4, r4
	.loc 1 515 0
	cmp	r4, #6
	bne	.L224
	.loc 1 517 0
	add	r4, sp, #4
	add	r0, r4, #4
	add	r1, sp, #1120
	add	r1, r1, #8
	mov	r2, #128
	bl	memcpy_b
	.loc 1 523 0
	str	r4, [sp, #1264]
	.loc 1 525 0
	add	r0, sp, #1248
	add	r0, r0, #8
	bl	stsMng_if_publish_system_cmd
	.loc 1 528 0
	add	r0, r4, #2
	mov	r1, #0
	mov	r2, #226
	bl	memset_b
	mov	r0, #1
.LVL225:
	b	.L225
.LVL226:
.L223:
	mov	r0, #0
.LVL227:
.L225:
.LVL228:
	.loc 1 535 0
	add	sp, sp, #252
	add	sp, sp, #1024
	ldmfd	sp!, {r4, r5, r6, r7, r8, r9, sl, fp, pc}
.LVL229:
.L224:
	.loc 1 521 0
	mov	r0, r7
	mov	r1, r5
	mov	r2, r8
	bl	memcpy_b
	.loc 1 523 0
	str	r6, [sp, #1264]
	.loc 1 525 0
	mov	r0, sl
	bl	stsMng_if_publish_system_cmd
	.loc 1 528 0
	mov	r0, r9
	mov	r1, fp
	mov	r2, #226
	bl	memset_b
	b	.L226
	.cfi_endproc
.LFE8:
	.fnend
	.size	stsMng_if_dircmd_spy_savStsSet_req, .-stsMng_if_dircmd_spy_savStsSet_req
	.align	2
	.global	stsMng_if_dircmd_spy_savStsGet_req
	.type	stsMng_if_dircmd_spy_savStsGet_req, %function
stsMng_if_dircmd_spy_savStsGet_req:
	.fnstart
.LFB7:
	.loc 1 396 0
	.cfi_startproc
	@ args = 0, pretend = 0, frame = 248
	@ frame_needed = 0, uses_anonymous_args = 0
.LVL230:
	stmfd	sp!, {r4, r5, r6, r7, r8, r9, sl, fp, lr}
	.save {r4, r5, r6, r7, r8, r9, sl, fp, lr}
.LCFI93:
	.cfi_def_cfa_offset 36
	.pad #252
	sub	sp, sp, #252
.LCFI94:
	.cfi_def_cfa_offset 288
	mov	r7, r0
	.cfi_offset 14, -4
	.cfi_offset 11, -8
	.cfi_offset 10, -12
	.cfi_offset 9, -16
	.cfi_offset 8, -20
	.cfi_offset 7, -24
	.cfi_offset 6, -28
	.cfi_offset 5, -32
	.cfi_offset 4, -36
	mov	r4, r1
	.loc 1 405 0
	add	r0, sp, #232
.LVL231:
	mov	r1, #0
.LVL232:
	mov	r2, #16
	bl	memset_b
	.loc 1 406 0
	add	r0, sp, #4
	mov	r1, #0
	mov	r2, #228
	bl	memset_b
	.loc 1 413 0
	cmp	r4, #512
	beq	.L229
	mov	r0, #0
.LVL233:
	b	.L230
.LVL234:
.L229:
	.loc 1 415 0
	mov	r6, #0
	str	r6, [sp, #232]
	.loc 1 416 0
	mvn	r3, #113
	strb	r3, [sp, #236]
	.loc 1 417 0
	mvn	r3, #27
	strb	r3, [sp, #238]
	.loc 1 411 0
	strb	r6, [sp, #4]
	.loc 1 412 0
	mov	r3, #3
	strb	r3, [sp, #5]
	.loc 1 425 0
	strb	r6, [sp, #6]
	.loc 1 426 0
	mov	r3, #1
	strb	r3, [sp, #7]
	mov	r4, r7
.LVL235:
	.loc 1 436 0
	add	r5, sp, #4
	add	r0, r5, #4
	mov	r1, r7
	mov	r2, #224
	bl	memcpy_b
	.loc 1 438 0
	str	r5, [sp, #240]
	.loc 1 440 0
	add	r0, sp, #232
	bl	stsMng_if_publish_system_cmd
	.loc 1 443 0
	add	r0, r5, #2
	mov	r1, r6
	mov	r2, #226
	bl	memset_b
	mov	r5, #2
	.loc 1 436 0
	add	r6, sp, #4
	add	r8, r6, #4
	mov	sl, #224
	.loc 1 440 0
	add	r9, sp, #232
	.loc 1 443 0
	add	fp, r6, r5
.L232:
	.loc 1 425 0
	mov	r3, r5, lsr #8
	strb	r3, [sp, #6]
	.loc 1 426 0
	strb	r5, [sp, #7]
	add	r4, r4, #224
	add	r5, r5, #1
	uxth	r5, r5
	.loc 1 430 0
	cmp	r5, #4
	bne	.L231
	.loc 1 432 0
	add	r4, sp, #4
	add	r0, r4, #4
	add	r1, r7, #448
	mov	r2, #64
	bl	memcpy_b
	.loc 1 438 0
	str	r4, [sp, #240]
	.loc 1 440 0
	add	r0, sp, #232
	bl	stsMng_if_publish_system_cmd
	.loc 1 443 0
	add	r0, r4, #2
	mov	r1, #0
	mov	r2, #226
	bl	memset_b
	mov	r0, #1
.LVL236:
.L230:
.LVL237:
	.loc 1 450 0
	add	sp, sp, #252
	ldmfd	sp!, {r4, r5, r6, r7, r8, r9, sl, fp, pc}
.LVL238:
.L231:
	.loc 1 436 0
	mov	r0, r8
	mov	r1, r4
	mov	r2, sl
	bl	memcpy_b
	.loc 1 438 0
	str	r6, [sp, #240]
	.loc 1 440 0
	mov	r0, r9
	bl	stsMng_if_publish_system_cmd
	.loc 1 443 0
	mov	r0, fp
	mov	r1, #0
	mov	r2, #226
	bl	memset_b
	b	.L232
	.cfi_endproc
.LFE7:
	.fnend
	.size	stsMng_if_dircmd_spy_savStsGet_req, .-stsMng_if_dircmd_spy_savStsGet_req
	.align	2
	.global	stsMng_if_dircmd_spy_plyQueAdd_req
	.type	stsMng_if_dircmd_spy_plyQueAdd_req, %function
stsMng_if_dircmd_spy_plyQueAdd_req:
	.fnstart
.LFB6:
	.loc 1 327 0
	.cfi_startproc
	@ args = 0, pretend = 0, frame = 248
	@ frame_needed = 0, uses_anonymous_args = 0
.LVL239:
	stmfd	sp!, {r4, r5, r6, r7, r8, r9, sl, fp, lr}
	.save {r4, r5, r6, r7, r8, r9, sl, fp, lr}
.LCFI95:
	.cfi_def_cfa_offset 36
	.pad #252
	sub	sp, sp, #252
.LCFI96:
	.cfi_def_cfa_offset 288
	mov	r7, r0
	.cfi_offset 14, -4
	.cfi_offset 11, -8
	.cfi_offset 10, -12
	.cfi_offset 9, -16
	.cfi_offset 8, -20
	.cfi_offset 7, -24
	.cfi_offset 6, -28
	.cfi_offset 5, -32
	.cfi_offset 4, -36
	mov	r4, r1
	.loc 1 336 0
	add	r0, sp, #232
.LVL240:
	mov	r1, #0
.LVL241:
	mov	r2, #16
	bl	memset_b
	.loc 1 337 0
	add	r0, sp, #4
	mov	r1, #0
	mov	r2, #228
	bl	memset_b
	.loc 1 344 0
	cmp	r4, #512
	beq	.L235
	mov	r0, #0
.LVL242:
	b	.L236
.LVL243:
.L235:
	.loc 1 346 0
	mov	r6, #0
	str	r6, [sp, #232]
	.loc 1 347 0
	mvn	r3, #96
	strb	r3, [sp, #236]
	.loc 1 348 0
	mvn	r3, #27
	strb	r3, [sp, #238]
	.loc 1 342 0
	strb	r6, [sp, #4]
	.loc 1 343 0
	mov	r3, #3
	strb	r3, [sp, #5]
	.loc 1 356 0
	strb	r6, [sp, #6]
	.loc 1 357 0
	mov	r3, #1
	strb	r3, [sp, #7]
	mov	r4, r7
.LVL244:
	.loc 1 367 0
	add	r5, sp, #4
	add	r0, r5, #4
	mov	r1, r7
	mov	r2, #224
	bl	memcpy_b
	.loc 1 369 0
	str	r5, [sp, #240]
	.loc 1 371 0
	add	r0, sp, #232
	bl	stsMng_if_publish_system_cmd
	.loc 1 374 0
	add	r0, r5, #2
	mov	r1, r6
	mov	r2, #226
	bl	memset_b
	mov	r5, #2
	.loc 1 367 0
	add	r6, sp, #4
	add	r8, r6, #4
	mov	sl, #224
	.loc 1 371 0
	add	r9, sp, #232
	.loc 1 374 0
	add	fp, r6, r5
.L238:
	.loc 1 356 0
	mov	r3, r5, lsr #8
	strb	r3, [sp, #6]
	.loc 1 357 0
	strb	r5, [sp, #7]
	add	r4, r4, #224
	add	r5, r5, #1
	uxth	r5, r5
	.loc 1 361 0
	cmp	r5, #4
	bne	.L237
	.loc 1 363 0
	add	r4, sp, #4
	add	r0, r4, #4
	add	r1, r7, #448
	mov	r2, #64
	bl	memcpy_b
	.loc 1 369 0
	str	r4, [sp, #240]
	.loc 1 371 0
	add	r0, sp, #232
	bl	stsMng_if_publish_system_cmd
	.loc 1 374 0
	add	r0, r4, #2
	mov	r1, #0
	mov	r2, #226
	bl	memset_b
	mov	r0, #1
.LVL245:
.L236:
.LVL246:
	.loc 1 381 0
	add	sp, sp, #252
	ldmfd	sp!, {r4, r5, r6, r7, r8, r9, sl, fp, pc}
.LVL247:
.L237:
	.loc 1 367 0
	mov	r0, r8
	mov	r1, r4
	mov	r2, sl
	bl	memcpy_b
	.loc 1 369 0
	str	r6, [sp, #240]
	.loc 1 371 0
	mov	r0, r9
	bl	stsMng_if_publish_system_cmd
	.loc 1 374 0
	mov	r0, fp
	mov	r1, #0
	mov	r2, #226
	bl	memset_b
	b	.L238
	.cfi_endproc
.LFE6:
	.fnend
	.size	stsMng_if_dircmd_spy_plyQueAdd_req, .-stsMng_if_dircmd_spy_plyQueAdd_req
	.align	2
	.global	stsMng_if_dircmd_spy_staMake_req
	.type	stsMng_if_dircmd_spy_staMake_req, %function
stsMng_if_dircmd_spy_staMake_req:
	.fnstart
.LFB5:
	.loc 1 258 0
	.cfi_startproc
	@ args = 0, pretend = 0, frame = 248
	@ frame_needed = 0, uses_anonymous_args = 0
.LVL248:
	stmfd	sp!, {r4, r5, r6, r7, r8, r9, sl, fp, lr}
	.save {r4, r5, r6, r7, r8, r9, sl, fp, lr}
.LCFI97:
	.cfi_def_cfa_offset 36
	.pad #252
	sub	sp, sp, #252
.LCFI98:
	.cfi_def_cfa_offset 288
	mov	r7, r0
	.cfi_offset 14, -4
	.cfi_offset 11, -8
	.cfi_offset 10, -12
	.cfi_offset 9, -16
	.cfi_offset 8, -20
	.cfi_offset 7, -24
	.cfi_offset 6, -28
	.cfi_offset 5, -32
	.cfi_offset 4, -36
	mov	r4, r1
	.loc 1 267 0
	add	r0, sp, #232
.LVL249:
	mov	r1, #0
.LVL250:
	mov	r2, #16
	bl	memset_b
	.loc 1 268 0
	add	r0, sp, #4
	mov	r1, #0
	mov	r2, #228
	bl	memset_b
	.loc 1 275 0
	cmp	r4, #512
	beq	.L241
	mov	r0, #0
.LVL251:
	b	.L242
.LVL252:
.L241:
	.loc 1 277 0
	mov	r6, #0
	str	r6, [sp, #232]
	.loc 1 278 0
	mvn	r3, #97
	strb	r3, [sp, #236]
	.loc 1 279 0
	mvn	r3, #27
	strb	r3, [sp, #238]
	.loc 1 273 0
	strb	r6, [sp, #4]
	.loc 1 274 0
	mov	r3, #3
	strb	r3, [sp, #5]
	.loc 1 287 0
	strb	r6, [sp, #6]
	.loc 1 288 0
	mov	r3, #1
	strb	r3, [sp, #7]
	mov	r4, r7
.LVL253:
	.loc 1 298 0
	add	r5, sp, #4
	add	r0, r5, #4
	mov	r1, r7
	mov	r2, #224
	bl	memcpy_b
	.loc 1 300 0
	str	r5, [sp, #240]
	.loc 1 302 0
	add	r0, sp, #232
	bl	stsMng_if_publish_system_cmd
	.loc 1 305 0
	add	r0, r5, #2
	mov	r1, r6
	mov	r2, #226
	bl	memset_b
	mov	r5, #2
	.loc 1 298 0
	add	r6, sp, #4
	add	r8, r6, #4
	mov	sl, #224
	.loc 1 302 0
	add	r9, sp, #232
	.loc 1 305 0
	add	fp, r6, r5
.L244:
	.loc 1 287 0
	mov	r3, r5, lsr #8
	strb	r3, [sp, #6]
	.loc 1 288 0
	strb	r5, [sp, #7]
	add	r4, r4, #224
	add	r5, r5, #1
	uxth	r5, r5
	.loc 1 292 0
	cmp	r5, #4
	bne	.L243
	.loc 1 294 0
	add	r4, sp, #4
	add	r0, r4, #4
	add	r1, r7, #448
	mov	r2, #64
	bl	memcpy_b
	.loc 1 300 0
	str	r4, [sp, #240]
	.loc 1 302 0
	add	r0, sp, #232
	bl	stsMng_if_publish_system_cmd
	.loc 1 305 0
	add	r0, r4, #2
	mov	r1, #0
	mov	r2, #226
	bl	memset_b
	mov	r0, #1
.LVL254:
.L242:
.LVL255:
	.loc 1 312 0
	add	sp, sp, #252
	ldmfd	sp!, {r4, r5, r6, r7, r8, r9, sl, fp, pc}
.LVL256:
.L243:
	.loc 1 298 0
	mov	r0, r8
	mov	r1, r4
	mov	r2, sl
	bl	memcpy_b
	.loc 1 300 0
	str	r6, [sp, #240]
	.loc 1 302 0
	mov	r0, r9
	bl	stsMng_if_publish_system_cmd
	.loc 1 305 0
	mov	r0, fp
	mov	r1, #0
	mov	r2, #226
	bl	memset_b
	b	.L244
	.cfi_endproc
.LFE5:
	.fnend
	.size	stsMng_if_dircmd_spy_staMake_req, .-stsMng_if_dircmd_spy_staMake_req
	.align	2
	.global	stsMng_if_dircmd_spy_dir_item_ply_req
	.type	stsMng_if_dircmd_spy_dir_item_ply_req, %function
stsMng_if_dircmd_spy_dir_item_ply_req:
	.fnstart
.LFB4:
	.loc 1 189 0
	.cfi_startproc
	@ args = 0, pretend = 0, frame = 248
	@ frame_needed = 0, uses_anonymous_args = 0
.LVL257:
	stmfd	sp!, {r4, r5, r6, r7, r8, r9, sl, fp, lr}
	.save {r4, r5, r6, r7, r8, r9, sl, fp, lr}
.LCFI99:
	.cfi_def_cfa_offset 36
	.pad #252
	sub	sp, sp, #252
.LCFI100:
	.cfi_def_cfa_offset 288
	mov	r7, r0
	.cfi_offset 14, -4
	.cfi_offset 11, -8
	.cfi_offset 10, -12
	.cfi_offset 9, -16
	.cfi_offset 8, -20
	.cfi_offset 7, -24
	.cfi_offset 6, -28
	.cfi_offset 5, -32
	.cfi_offset 4, -36
	mov	r4, r1
	.loc 1 198 0
	add	r0, sp, #232
.LVL258:
	mov	r1, #0
.LVL259:
	mov	r2, #16
	bl	memset_b
	.loc 1 199 0
	add	r0, sp, #4
	mov	r1, #0
	mov	r2, #228
	bl	memset_b
	.loc 1 206 0
	cmp	r4, #512
	beq	.L247
	mov	r0, #0
.LVL260:
	b	.L248
.LVL261:
.L247:
	.loc 1 208 0
	mov	r6, #0
	str	r6, [sp, #232]
	.loc 1 209 0
	mvn	r3, #98
	strb	r3, [sp, #236]
	.loc 1 210 0
	mvn	r3, #27
	strb	r3, [sp, #238]
	.loc 1 204 0
	strb	r6, [sp, #4]
	.loc 1 205 0
	mov	r3, #3
	strb	r3, [sp, #5]
	.loc 1 218 0
	strb	r6, [sp, #6]
	.loc 1 219 0
	mov	r3, #1
	strb	r3, [sp, #7]
	mov	r4, r7
.LVL262:
	.loc 1 229 0
	add	r5, sp, #4
	add	r0, r5, #4
	mov	r1, r7
	mov	r2, #224
	bl	memcpy_b
	.loc 1 231 0
	str	r5, [sp, #240]
	.loc 1 233 0
	add	r0, sp, #232
	bl	stsMng_if_publish_system_cmd
	.loc 1 236 0
	add	r0, r5, #2
	mov	r1, r6
	mov	r2, #226
	bl	memset_b
	mov	r5, #2
	.loc 1 229 0
	add	r6, sp, #4
	add	r8, r6, #4
	mov	sl, #224
	.loc 1 233 0
	add	r9, sp, #232
	.loc 1 236 0
	add	fp, r6, r5
.L250:
	.loc 1 218 0
	mov	r3, r5, lsr #8
	strb	r3, [sp, #6]
	.loc 1 219 0
	strb	r5, [sp, #7]
	add	r4, r4, #224
	add	r5, r5, #1
	uxth	r5, r5
	.loc 1 223 0
	cmp	r5, #4
	bne	.L249
	.loc 1 225 0
	add	r4, sp, #4
	add	r0, r4, #4
	add	r1, r7, #448
	mov	r2, #64
	bl	memcpy_b
	.loc 1 231 0
	str	r4, [sp, #240]
	.loc 1 233 0
	add	r0, sp, #232
	bl	stsMng_if_publish_system_cmd
	.loc 1 236 0
	add	r0, r4, #2
	mov	r1, #0
	mov	r2, #226
	bl	memset_b
	mov	r0, #1
.LVL263:
.L248:
.LVL264:
	.loc 1 243 0
	add	sp, sp, #252
	ldmfd	sp!, {r4, r5, r6, r7, r8, r9, sl, fp, pc}
.LVL265:
.L249:
	.loc 1 229 0
	mov	r0, r8
	mov	r1, r4
	mov	r2, sl
	bl	memcpy_b
	.loc 1 231 0
	str	r6, [sp, #240]
	.loc 1 233 0
	mov	r0, r9
	bl	stsMng_if_publish_system_cmd
	.loc 1 236 0
	mov	r0, fp
	mov	r1, #0
	mov	r2, #226
	bl	memset_b
	b	.L250
	.cfi_endproc
.LFE4:
	.fnend
	.size	stsMng_if_dircmd_spy_dir_item_ply_req, .-stsMng_if_dircmd_spy_dir_item_ply_req
	.align	2
	.global	stsMng_if_dircmd_spy_plyStsSet_req
	.type	stsMng_if_dircmd_spy_plyStsSet_req, %function
stsMng_if_dircmd_spy_plyStsSet_req:
	.fnstart
.LFB3:
	.loc 1 145 0
	.cfi_startproc
	@ args = 0, pretend = 0, frame = 24
	@ frame_needed = 0, uses_anonymous_args = 0
.LVL266:
	stmfd	sp!, {r4, r5, lr}
	.save {r4, r5, lr}
.LCFI101:
	.cfi_def_cfa_offset 12
	.pad #28
	sub	sp, sp, #28
.LCFI102:
	.cfi_def_cfa_offset 40
	mov	r4, r0
	.cfi_offset 14, -4
	.cfi_offset 5, -8
	.cfi_offset 4, -12
	mov	r5, r1
	.loc 1 150 0
	add	r0, sp, #8
.LVL267:
	mov	r1, #0
.LVL268:
	mov	r2, #16
	bl	memset_b
	.loc 1 152 0
	cmp	r4, #3
	bls	.L253
	mov	r0, #0
.LVL269:
	b	.L254
.LVL270:
.L253:
	.loc 1 154 0
	mov	r3, #0
	str	r3, [sp, #8]
	.loc 1 155 0
	mvn	r3, #114
	strb	r3, [sp, #12]
	.loc 1 160 0
	strb	r4, [sp, #13]
	.loc 1 164 0
	strb	r5, [sp, #7]
.LVL271:
	.loc 1 165 0
	mov	r4, #1
.LVL272:
	strb	r4, [sp, #14]
	.loc 1 166 0
	add	r3, sp, #7
	str	r3, [sp, #16]
	.loc 1 168 0
	add	r0, sp, #8
	bl	stsMng_if_publish_system_cmd
	mov	r0, r4
.LVL273:
.L254:
.LVL274:
	.loc 1 174 0
	add	sp, sp, #28
	ldmfd	sp!, {r4, r5, pc}
	.cfi_endproc
.LFE3:
	.fnend
	.size	stsMng_if_dircmd_spy_plyStsSet_req, .-stsMng_if_dircmd_spy_plyStsSet_req
	.align	2
	.global	stsMng_if_dircmd_spy_cmd_send_only
	.type	stsMng_if_dircmd_spy_cmd_send_only, %function
stsMng_if_dircmd_spy_cmd_send_only:
	.fnstart
.LFB2:
	.loc 1 109 0
	.cfi_startproc
	@ args = 0, pretend = 0, frame = 16
	@ frame_needed = 0, uses_anonymous_args = 0
.LVL275:
	stmfd	sp!, {r4, lr}
	.save {r4, lr}
.LCFI103:
	.cfi_def_cfa_offset 8
	.pad #16
	sub	sp, sp, #16
.LCFI104:
	.cfi_def_cfa_offset 24
	mov	r4, r0
	.cfi_offset 14, -4
	.cfi_offset 4, -8
	.loc 1 113 0
	mov	r0, sp
.LVL276:
	mov	r1, #0
	mov	r2, #16
	bl	memset_b
	.loc 1 118 0
	cmp	r4, #163
	bls	.L257
	mov	r0, #0
.LVL277:
	b	.L258
.LVL278:
.L257:
	.loc 1 120 0
	mov	r3, #0
	str	r3, [sp, #0]
	.loc 1 121 0
	strb	r4, [sp, #4]
	.loc 1 122 0
	strb	r3, [sp, #6]
	.loc 1 123 0
	str	r3, [sp, #8]
	.loc 1 125 0
	mov	r0, sp
	bl	stsMng_if_publish_system_cmd
	mov	r0, #1
.LVL279:
.L258:
.LVL280:
	.loc 1 131 0
	add	sp, sp, #16
	ldmfd	sp!, {r4, pc}
	.cfi_endproc
.LFE2:
	.fnend
	.size	stsMng_if_dircmd_spy_cmd_send_only, .-stsMng_if_dircmd_spy_cmd_send_only
	.align	2
	.global	stsMng_if_dircmd_spy_dir_conMthd
	.type	stsMng_if_dircmd_spy_dir_conMthd, %function
stsMng_if_dircmd_spy_dir_conMthd:
	.fnstart
.LFB1:
	.loc 1 65 0
	.cfi_startproc
	@ args = 0, pretend = 0, frame = 16
	@ frame_needed = 0, uses_anonymous_args = 0
.LVL281:
	stmfd	sp!, {r4, lr}
	.save {r4, lr}
.LCFI105:
	.cfi_def_cfa_offset 8
	.pad #16
	sub	sp, sp, #16
.LCFI106:
	.cfi_def_cfa_offset 24
	mov	r4, r0
	.cfi_offset 14, -4
	.cfi_offset 4, -8
	.loc 1 69 0
	mov	r0, sp
.LVL282:
	mov	r1, #0
	mov	r2, #16
	bl	memset_b
	.loc 1 74 0
	cmp	r4, #3
	bls	.L261
	mov	r0, #0
.LVL283:
	b	.L262
.LVL284:
.L261:
	.loc 1 76 0
	mov	r3, #0
	str	r3, [sp, #0]
	.loc 1 77 0
	mvn	r2, #116
	strb	r2, [sp, #4]
	.loc 1 79 0
	strb	r4, [sp, #5]
	.loc 1 80 0
	strb	r3, [sp, #6]
	.loc 1 81 0
	str	r3, [sp, #8]
	.loc 1 83 0
	mov	r0, sp
	bl	stsMng_if_publish_system_cmd
	mov	r0, #1
.LVL285:
.L262:
.LVL286:
	.loc 1 89 0
	add	sp, sp, #16
	ldmfd	sp!, {r4, pc}
	.cfi_endproc
.LFE1:
	.fnend
	.size	stsMng_if_dircmd_spy_dir_conMthd, .-stsMng_if_dircmd_spy_dir_conMthd
	.align	2
	.global	stsMng_if_dircmd_spy_artwrkGet_req
	.type	stsMng_if_dircmd_spy_artwrkGet_req, %function
stsMng_if_dircmd_spy_artwrkGet_req:
	.fnstart
.LFB13:
	.loc 1 875 0
	.cfi_startproc
	@ args = 0, pretend = 0, frame = 256
	@ frame_needed = 0, uses_anonymous_args = 0
.LVL287:
	stmfd	sp!, {r4, r5, r6, r7, r8, r9, sl, fp, lr}
	.save {r4, r5, r6, r7, r8, r9, sl, fp, lr}
.LCFI107:
	.cfi_def_cfa_offset 36
	.pad #260
	sub	sp, sp, #260
.LCFI108:
	.cfi_def_cfa_offset 296
	mov	r5, r0
	.cfi_offset 14, -4
	.cfi_offset 11, -8
	.cfi_offset 10, -12
	.cfi_offset 9, -16
	.cfi_offset 8, -20
	.cfi_offset 7, -24
	.cfi_offset 6, -28
	.cfi_offset 5, -32
	.cfi_offset 4, -36
	mov	r6, r1
	mov	r4, r2
	.loc 1 886 0
	add	r0, sp, #240
.LVL288:
	mov	r1, #0
.LVL289:
	mov	r2, #16
.LVL290:
	bl	memset_b
	.loc 1 887 0
	add	r0, sp, #8
	mov	r1, #0
	mov	r2, #228
	bl	memset_b
	.loc 1 897 0
	cmp	r4, #512
	bne	.L265
	.loc 1 899 0
	mov	r3, #0
	str	r3, [sp, #240]
	.loc 1 900 0
	mvn	r3, #102
	strb	r3, [sp, #244]
	.loc 1 901 0
	mvn	r3, #23
	strb	r3, [sp, #246]
	.loc 1 905 0
	strb	r5, [sp, #245]
	.loc 1 910 0
	bl	stsMng_get_comm_artwork_write_buffer
	.loc 1 912 0
	cmp	r0, #0
.LVL291:
	bne	.L266
	mov	fp, #0
.LVL292:
	b	.L267
.LVL293:
.L266:
	.loc 1 914 0
	add	r3, r0, #8
	mov	r2, r3, lsr #24
	strb	r2, [sp, #8]
	.loc 1 915 0
	mov	r2, r3, lsr #16
	strb	r2, [sp, #9]
	.loc 1 916 0
	mov	r2, r3, lsr #8
	strb	r2, [sp, #10]
	.loc 1 917 0
	strb	r3, [sp, #11]
	mov	fp, #1
.LVL294:
.L267:
	.loc 1 921 0
	mov	r3, #0
	strb	r3, [sp, #12]
	.loc 1 922 0
	mov	r3, #3
	strb	r3, [sp, #13]
	mov	r5, r6
.LVL295:
	mov	r4, #1
.LVL296:
	.loc 1 941 0
	add	r7, sp, #8
	add	r3, r7, #8
	str	r3, [sp, #0]
	.loc 1 937 0
	add	r6, r6, #448
.LVL297:
	str	r6, [sp, #4]
	.loc 1 945 0
	mov	r6, #0
	.loc 1 949 0
	add	r8, sp, #240
	.loc 1 952 0
	add	sl, r7, #6
	mov	r9, #222
.L270:
	.loc 1 930 0
	ubfx	r3, r4, #8, #8
	strb	r3, [sp, #14]
	.loc 1 931 0
	strb	r4, [sp, #15]
	.loc 1 935 0
	cmp	r4, #3
	.loc 1 937 0
	ldr	r0, [sp, #0]
.LVL298:
	.loc 1 935 0
	bne	.L268
	.loc 1 937 0
	ldr	r1, [sp, #4]
	mov	r2, #64
	bl	memcpy_b
	b	.L269
.L268:
	.loc 1 941 0
	mov	r1, r5
	mov	r2, #224
	bl	memcpy_b
.L269:
	.loc 1 947 0
	cmp	fp, #1
	bne	.L265
	.loc 1 944 0
	str	r7, [sp, #248]
	.loc 1 945 0
	strb	r6, [sp, #252]
	.loc 1 949 0
	mov	r0, r8
	bl	stsMng_if_publish_system_cmd
	.loc 1 952 0
	mov	r0, sl
	mov	r1, r6
	mov	r2, r9
	bl	memset_b
	add	r4, r4, #1
	add	r5, r5, #224
	.loc 1 924 0
	cmp	r4, #4
	bne	.L270
	mov	r0, #1
.LVL299:
	b	.L271
.LVL300:
.L265:
	mov	r0, #0
.LVL301:
.L271:
.LVL302:
	.loc 1 964 0
	add	sp, sp, #260
	ldmfd	sp!, {r4, r5, r6, r7, r8, r9, sl, fp, pc}
	.cfi_endproc
.LFE13:
	.fnend
	.size	stsMng_if_dircmd_spy_artwrkGet_req, .-stsMng_if_dircmd_spy_artwrkGet_req
	.align	2
	.global	stsMng_if_dircmd_spy_onoff_notify
	.type	stsMng_if_dircmd_spy_onoff_notify, %function
stsMng_if_dircmd_spy_onoff_notify:
	.fnstart
.LFB0:
	.loc 1 36 0
	.cfi_startproc
	@ args = 0, pretend = 0, frame = 0
	@ frame_needed = 0, uses_anonymous_args = 0
.LVL303:
	stmfd	sp!, {r3, lr}
	.save {r3, lr}
.LCFI109:
	.cfi_def_cfa_offset 8
	.loc 1 39 0
	cmp	r0, #0
	bne	.L275
	.cfi_offset 14, -4
	.cfi_offset 3, -8
	.loc 1 41 0
	mov	r0, #117
.LVL304:
	mov	r1, #0
	bl	stsMng_if_dircmd_setup_normal
	ldmfd	sp!, {r3, pc}
.LVL305:
.L275:
	.loc 1 43 0
	cmp	r0, #1
	beq	.L277
	mov	r0, #0
.LVL306:
	ldmfd	sp!, {r3, pc}
.LVL307:
.L277:
	.loc 1 45 0
	mov	r0, #118
.LVL308:
	mov	r1, #0
	bl	stsMng_if_dircmd_setup_normal
	.loc 1 53 0
	ldmfd	sp!, {r3, pc}
	.cfi_endproc
.LFE0:
	.fnend
	.size	stsMng_if_dircmd_spy_onoff_notify, .-stsMng_if_dircmd_spy_onoff_notify
	.comm	audio_lib_info,514,4
	.comm	vedio_lib_info,514,4
.Letext0: