	.cpu cortex-a9
	.eabi_attribute 27, 3
	.fpu neon
	.eabi_attribute 20, 1
	.eabi_attribute 21, 1
	.eabi_attribute 23, 3
	.eabi_attribute 24, 1
	.eabi_attribute 25, 1
	.eabi_attribute 26, 1
	.eabi_attribute 30, 1
	.eabi_attribute 18, 4
	.file	"System_manager.c"
	.text
.Ltext0:
	.cfi_sections	.debug_frame
	.align	2
	.global	system_manager_get_current_product_info
	.type	system_manager_get_current_product_info, %function
system_manager_get_current_product_info:
	.fnstart
.LFB2:
	.file 1 "System_manager.c"
	.loc 1 301 0
	.cfi_startproc
	@ args = 0, pretend = 0, frame = 0
	@ frame_needed = 0, uses_anonymous_args = 0
	@ link register save eliminated.
	.loc 1 303 0
	movw	r0, #:lower16:PRODUCT_INFO
	movt	r0, #:upper16:PRODUCT_INFO
	bx	lr
	.cfi_endproc
.LFE2:
	.fnend
	.size	system_manager_get_current_product_info, .-system_manager_get_current_product_info
	.align	2
	.global	system_wallpaper_backup_req
	.type	system_wallpaper_backup_req, %function
system_wallpaper_backup_req:
	.fnstart
.LFB7:
	.loc 1 913 0
	.cfi_startproc
	@ args = 0, pretend = 0, frame = 0
	@ frame_needed = 0, uses_anonymous_args = 0
	@ link register save eliminated.
.LVL0:
	.loc 1 917 0
	movw	r3, #:lower16:.LANCHOR0
	movt	r3, #:upper16:.LANCHOR0
	ldrb	r3, [r3, #0]	@ zero_extendqisi2
	cmp	r3, #0
	beq	.L4
	mov	r0, #0
.LVL1:
	bx	lr
.LVL2:
.L4:
	.loc 1 919 0
	movw	r3, #:lower16:.LANCHOR0
	movt	r3, #:upper16:.LANCHOR0
	mov	r2, #1
	strb	r2, [r3, #0]
	.loc 1 921 0
	str	r0, [r3, #4]
	mov	r0, r2
.LVL3:
.LVL4:
	.loc 1 927 0
	bx	lr
	.cfi_endproc
.LFE7:
	.fnend
	.size	system_wallpaper_backup_req, .-system_wallpaper_backup_req
	.align	2
	.global	system_wallpaper_delete_req
	.type	system_wallpaper_delete_req, %function
system_wallpaper_delete_req:
	.fnstart
.LFB8:
	.loc 1 948 0
	.cfi_startproc
	@ args = 0, pretend = 0, frame = 0
	@ frame_needed = 0, uses_anonymous_args = 0
	@ link register save eliminated.
.LVL5:
	.loc 1 951 0
	movw	r3, #:lower16:.LANCHOR0
	movt	r3, #:upper16:.LANCHOR0
	ldrb	r3, [r3, #0]	@ zero_extendqisi2
	cmp	r3, #0
	beq	.L8
	mov	r0, #0
.LVL6:
	bx	lr
.LVL7:
.L8:
	.loc 1 953 0
	movw	r3, #:lower16:.LANCHOR0
	movt	r3, #:upper16:.LANCHOR0
	mov	r2, #4
	strb	r2, [r3, #0]
	.loc 1 955 0
	str	r0, [r3, #4]
	mov	r0, #1
.LVL8:
.LVL9:
	.loc 1 962 0
	bx	lr
	.cfi_endproc
.LFE8:
	.fnend
	.size	system_wallpaper_delete_req, .-system_wallpaper_delete_req
	.align	2
	.global	system_set_app_icon_write_callback
	.type	system_set_app_icon_write_callback, %function
system_set_app_icon_write_callback:
	.fnstart
.LFB9:
	.loc 1 990 0
	.cfi_startproc
	@ args = 0, pretend = 0, frame = 0
	@ frame_needed = 0, uses_anonymous_args = 0
	@ link register save eliminated.
.LVL10:
	.loc 1 992 0
	movw	r3, #:lower16:.LANCHOR0
	movt	r3, #:upper16:.LANCHOR0
	str	r0, [r3, #8]
.LVL11:
	.loc 1 993 0
	bx	lr
	.cfi_endproc
.LFE9:
	.fnend
	.size	system_set_app_icon_write_callback, .-system_set_app_icon_write_callback
	.align	2
	.global	system_wallpaper_save_check
	.type	system_wallpaper_save_check, %function
system_wallpaper_save_check:
	.fnstart
.LFB12:
	.loc 1 1108 0
	.cfi_startproc
	@ args = 0, pretend = 0, frame = 0
	@ frame_needed = 0, uses_anonymous_args = 0
	@ link register save eliminated.
	.loc 1 1108 0
	movw	r3, #:lower16:.LANCHOR0
	movt	r3, #:upper16:.LANCHOR0
	.loc 1 1110 0
	ldrb	r0, [r3, #12]	@ zero_extendqisi2
	bx	lr
	.cfi_endproc
.LFE12:
	.fnend
	.size	system_wallpaper_save_check, .-system_wallpaper_save_check
	.align	2
	.global	system_set_irq
	.type	system_set_irq, %function
system_set_irq:
	.fnstart
.LFB13:
	.loc 1 1131 0
	.cfi_startproc
	@ args = 0, pretend = 0, frame = 0
	@ frame_needed = 0, uses_anonymous_args = 0
	@ link register save eliminated.
	.loc 1 1145 0
	bx	lr
	.cfi_endproc
.LFE13:
	.fnend
	.size	system_set_irq, .-system_set_irq
	.align	2
	.global	system_mng_restart_mode_set
	.type	system_mng_restart_mode_set, %function
system_mng_restart_mode_set:
	.fnstart
.LFB15:
	.loc 1 1303 0
	.cfi_startproc
	@ args = 0, pretend = 0, frame = 0
	@ frame_needed = 0, uses_anonymous_args = 0
	@ link register save eliminated.
.LVL12:
	.loc 1 1304 0
	movw	r3, #:lower16:.LANCHOR0
	movt	r3, #:upper16:.LANCHOR0
	strb	r0, [r3, #14]
	.loc 1 1305 0
	bx	lr
	.cfi_endproc
.LFE15:
	.fnend
	.size	system_mng_restart_mode_set, .-system_mng_restart_mode_set
	.align	2
	.global	system_mng_restart_mode_get
	.type	system_mng_restart_mode_get, %function
system_mng_restart_mode_get:
	.fnstart
.LFB16:
	.loc 1 1308 0
	.cfi_startproc
	@ args = 0, pretend = 0, frame = 0
	@ frame_needed = 0, uses_anonymous_args = 0
	@ link register save eliminated.
	.loc 1 1308 0
	movw	r3, #:lower16:.LANCHOR0
	movt	r3, #:upper16:.LANCHOR0
	.loc 1 1310 0
	ldrb	r0, [r3, #14]	@ zero_extendqisi2
	bx	lr
	.cfi_endproc
.LFE16:
	.fnend
	.size	system_mng_restart_mode_get, .-system_mng_restart_mode_get
	.align	2
	.global	system_mng_flash_boot_get_command
	.type	system_mng_flash_boot_get_command, %function
system_mng_flash_boot_get_command:
	.fnstart
.LFB18:
	.loc 1 1346 0
	.cfi_startproc
	@ args = 0, pretend = 0, frame = 0
	@ frame_needed = 0, uses_anonymous_args = 0
	@ link register save eliminated.
	.loc 1 1346 0
	movw	r3, #:lower16:.LANCHOR0
	movt	r3, #:upper16:.LANCHOR0
	.loc 1 1348 0
	ldrb	r0, [r3, #15]	@ zero_extendqisi2
	bx	lr
	.cfi_endproc
.LFE18:
	.fnend
	.size	system_mng_flash_boot_get_command, .-system_mng_flash_boot_get_command
	.align	2
	.global	PowTimer_AccOnProcGuardTimerSet
	.type	PowTimer_AccOnProcGuardTimerSet, %function
PowTimer_AccOnProcGuardTimerSet:
	.fnstart
.LFB28:
	.loc 1 1532 0
	.cfi_startproc
	@ args = 0, pretend = 0, frame = 0
	@ frame_needed = 0, uses_anonymous_args = 0
	@ link register save eliminated.
.LVL13:
	.loc 1 1533 0
	movw	r3, #:lower16:.LANCHOR0
	movt	r3, #:upper16:.LANCHOR0
	add	r3, r3, r0, asl #3
	add	r3, r3, #16
	strb	r2, [r3, #4]
	.loc 1 1534 0
	str	r1, [r3, #0]
	.loc 1 1535 0
	bx	lr
	.cfi_endproc
.LFE28:
	.fnend
	.size	PowTimer_AccOnProcGuardTimerSet, .-PowTimer_AccOnProcGuardTimerSet
	.align	2
	.global	PowTimer_AccOffProcGuardTimerSet
	.type	PowTimer_AccOffProcGuardTimerSet, %function
PowTimer_AccOffProcGuardTimerSet:
	.fnstart
.LFB30:
	.loc 1 1579 0
	.cfi_startproc
	@ args = 0, pretend = 0, frame = 0
	@ frame_needed = 0, uses_anonymous_args = 0
	@ link register save eliminated.
.LVL14:
	.loc 1 1580 0
	movw	r3, #:lower16:.LANCHOR0
	movt	r3, #:upper16:.LANCHOR0
	add	r3, r3, r0, asl #3
	add	r3, r3, #272
	strb	r2, [r3, #4]
	.loc 1 1581 0
	str	r1, [r3, #0]
	.loc 1 1582 0
	bx	lr
	.cfi_endproc
.LFE30:
	.fnend
	.size	PowTimer_AccOffProcGuardTimerSet, .-PowTimer_AccOffProcGuardTimerSet
	.align	2
	.global	PowTimer_GetTaskState
	.type	PowTimer_GetTaskState, %function
PowTimer_GetTaskState:
	.fnstart
.LFB33:
	.loc 1 1655 0
	.cfi_startproc
	@ args = 0, pretend = 0, frame = 0
	@ frame_needed = 0, uses_anonymous_args = 0
	@ link register save eliminated.
.LVL15:
	.loc 1 1655 0
	movw	r3, #:lower16:.LANCHOR0
	movt	r3, #:upper16:.LANCHOR0
	add	r3, r3, r0, asl #3
	.loc 1 1657 0
	ldrb	r0, [r3, #20]	@ zero_extendqisi2
.LVL16:
	bx	lr
	.cfi_endproc
.LFE33:
	.fnend
	.size	PowTimer_GetTaskState, .-PowTimer_GetTaskState
	.align	2
	.global	PowTimer_TimerCount
	.type	PowTimer_TimerCount, %function
PowTimer_TimerCount:
	.fnstart
.LFB34:
	.loc 1 1660 0
	.cfi_startproc
	@ args = 0, pretend = 0, frame = 0
	@ frame_needed = 0, uses_anonymous_args = 0
	@ link register save eliminated.
.LVL17:
	.loc 1 1661 0
	movw	r3, #:lower16:.LANCHOR0
	movt	r3, #:upper16:.LANCHOR0
	add	r3, r3, r0, asl #3
	add	r0, r3, #528
.LVL18:
	strh	r1, [r0, #0]	@ movhi
	.loc 1 1662 0
	str	r2, [r3, #532]
	.loc 1 1663 0
	bx	lr
	.cfi_endproc
.LFE34:
	.fnend
	.size	PowTimer_TimerCount, .-PowTimer_TimerCount
	.align	2
	.global	PowTimer_initReset
	.type	PowTimer_initReset, %function
PowTimer_initReset:
	.fnstart
.LFB32:
	.loc 1 1648 0
	.cfi_startproc
	@ args = 0, pretend = 0, frame = 0
	@ frame_needed = 0, uses_anonymous_args = 0
	stmfd	sp!, {r4, lr}
	.save {r4, lr}
.LCFI0:
	.cfi_def_cfa_offset 8
	.loc 1 1649 0
	movw	r4, #:lower16:.LANCHOR0
	.cfi_offset 14, -4
	.cfi_offset 4, -8
	movt	r4, #:upper16:.LANCHOR0
	add	r0, r4, #16
	mov	r1, #0
	mov	r2, #256
	bl	memset_b
	.loc 1 1650 0
	add	r0, r4, #272
	mov	r1, #0
	mov	r2, #256
	bl	memset_b
	.loc 1 1651 0
	add	r0, r4, #528
	mov	r1, #0
	mov	r2, #40
	bl	memset_b
	.loc 1 1652 0
	ldmfd	sp!, {r4, pc}
	.cfi_endproc
.LFE32:
	.fnend
	.size	PowTimer_initReset, .-PowTimer_initReset
	.align	2
	.global	PowTimer_AccOffProcGuardTimerClear
	.type	PowTimer_AccOffProcGuardTimerClear, %function
PowTimer_AccOffProcGuardTimerClear:
	.fnstart
.LFB31:
	.loc 1 1591 0
	.cfi_startproc
	@ args = 0, pretend = 0, frame = 0
	@ frame_needed = 0, uses_anonymous_args = 0
.LVL19:
	stmfd	sp!, {r4, r5, r6, lr}
	.save {r4, r5, r6, lr}
.LCFI1:
	.cfi_def_cfa_offset 16
	mov	r4, r0
	.cfi_offset 14, -4
	.cfi_offset 6, -8
	.cfi_offset 5, -12
	.cfi_offset 4, -16
	mov	r5, r1
	.loc 1 1598 0
	bl	PowMng_Itron_AccOff_InfoComplete
.LVL20:
	mov	r6, r0
.LVL21:
	.loc 1 1600 0
	movw	r3, #:lower16:.LANCHOR0
	movt	r3, #:upper16:.LANCHOR0
	add	r3, r3, r4, asl #3
	ldrb	r3, [r3, #276]	@ zero_extendqisi2
	cmp	r3, #4
	ldmnefd	sp!, {r4, r5, r6, pc}
	.loc 1 1602 0
	movw	r3, #:lower16:.LANCHOR0
	movt	r3, #:upper16:.LANCHOR0
	add	r3, r3, r4, asl #3
.LVL22:
	add	r3, r3, #272
	strb	r5, [r3, #4]
	.loc 1 1603 0
	mov	r2, #0
	str	r2, [r3, #0]
	.loc 1 1604 0
	bl	PowMng_GetQuicklyAccOffStatus
	cmp	r0, #1
	bne	.L35
	.loc 1 1606 0
	cmp	r4, #24
.LVL23:
	ldmnefd	sp!, {r4, r5, r6, pc}
	.loc 1 1608 0
	bl	PowMng_AccOffComplete
	ldmfd	sp!, {r4, r5, r6, pc}
.LVL24:
.L35:
	.loc 1 1616 0
	cmp	r4, #25
.LVL25:
	bne	.L36
	.loc 1 1618 0
	bl	PowMng_Itron_AccOff_Start
	ldmfd	sp!, {r4, r5, r6, pc}
.L36:
	mov	r3, #0
	mov	r2, #1
.LVL26:
	ldr	r0, .L42
.L39:
	add	r1, r0, r3
	ldrb	r1, [r1, #4]	@ zero_extendqisi2
	cmp	r1, #4
	moveq	r2, #0
.LVL27:
	add	r3, r3, #8
	.loc 1 1621 0
	cmp	r3, #256
	bne	.L39
	.loc 1 1629 0
	cmp	r6, #1
	cmpeq	r2, #1
	ldmnefd	sp!, {r4, r5, r6, pc}
	.loc 1 1631 0
	bl	PowMng_AccOffComplete
.LVL28:
	ldmfd	sp!, {r4, r5, r6, pc}
.L43:
	.align	2
.L42:
	.word	.LANCHOR0+272
	.cfi_endproc
.LFE31:
	.fnend
	.size	PowTimer_AccOffProcGuardTimerClear, .-PowTimer_AccOffProcGuardTimerClear
	.align	2
	.global	PowTimer_AccOnProcGuardTimerClear
	.type	PowTimer_AccOnProcGuardTimerClear, %function
PowTimer_AccOnProcGuardTimerClear:
	.fnstart
.LFB29:
	.loc 1 1544 0
	.cfi_startproc
	@ args = 0, pretend = 0, frame = 0
	@ frame_needed = 0, uses_anonymous_args = 0
.LVL29:
	stmfd	sp!, {r3, lr}
	.save {r3, lr}
.LCFI2:
	.cfi_def_cfa_offset 8
	.loc 1 1551 0
	movw	r3, #:lower16:.LANCHOR0
	.cfi_offset 14, -4
	.cfi_offset 3, -8
	movt	r3, #:upper16:.LANCHOR0
	add	r3, r3, r0, asl #3
.LVL30:
	ldrb	r3, [r3, #20]	@ zero_extendqisi2
	cmp	r3, #5
	ldmnefd	sp!, {r3, pc}
	.loc 1 1553 0
	movw	r3, #:lower16:.LANCHOR0
	movt	r3, #:upper16:.LANCHOR0
	add	r0, r3, r0, asl #3
	add	r0, r0, #16
	strb	r1, [r0, #4]
	.loc 1 1554 0
	mov	r3, #0
	str	r3, [r0, #0]
	mov	r1, #1
.LVL31:
	.loc 1 1558 0
	movw	r0, #:lower16:.LANCHOR0
	movt	r0, #:upper16:.LANCHOR0
	add	r0, r0, #16
.L48:
	add	r2, r0, r3
	ldrb	r2, [r2, #4]	@ zero_extendqisi2
	cmp	r2, #1
	cmpne	r2, #3
	movne	r2, #0
	moveq	r2, #1
	cmp	r2, #0
	moveq	r1, #0
.LVL32:
	add	r3, r3, #8
	.loc 1 1556 0
	cmp	r3, #200
	bne	.L48
	.loc 1 1564 0
	cmp	r1, #1
	ldmnefd	sp!, {r3, pc}
	.loc 1 1566 0
	bl	PowMng_TaskUpComplete
.LVL33:
	ldmfd	sp!, {r3, pc}
	.cfi_endproc
.LFE29:
	.fnend
	.size	PowTimer_AccOnProcGuardTimerClear, .-PowTimer_AccOnProcGuardTimerClear
	.align	2
	.global	PowTimer_Cyclic__2ms_Task
	.type	PowTimer_Cyclic__2ms_Task, %function
PowTimer_Cyclic__2ms_Task:
	.fnstart
.LFB26:
	.loc 1 1444 0
	.cfi_startproc
	@ args = 0, pretend = 0, frame = 0
	@ frame_needed = 0, uses_anonymous_args = 0
	stmfd	sp!, {r3, lr}
	.save {r3, lr}
.LCFI3:
	.cfi_def_cfa_offset 8
	.loc 1 1445 0
	movw	r3, #:lower16:FLG_ID_SYSTEM_MANAGER
	.cfi_offset 14, -4
	.cfi_offset 3, -8
	movt	r3, #:upper16:FLG_ID_SYSTEM_MANAGER
	ldrsh	r0, [r3, #0]
	mov	r1, #2048
	bl	cmaFlagSet
	.loc 1 1446 0
	ldmfd	sp!, {r3, pc}
	.cfi_endproc
.LFE26:
	.fnend
	.size	PowTimer_Cyclic__2ms_Task, .-PowTimer_Cyclic__2ms_Task
	.align	2
	.global	system_mng_flash_boot_set_command
	.type	system_mng_flash_boot_set_command, %function
system_mng_flash_boot_set_command:
	.fnstart
.LFB20:
	.loc 1 1356 0
	.cfi_startproc
	@ args = 0, pretend = 0, frame = 0
	@ frame_needed = 0, uses_anonymous_args = 0
.LVL34:
	stmfd	sp!, {r3, lr}
	.save {r3, lr}
.LCFI4:
	.cfi_def_cfa_offset 8
	.loc 1 1357 0
	cmp	r0, #4
	ldrls	pc, [pc, r0, asl #2]
	b	.L54
	.cfi_offset 14, -4
	.cfi_offset 3, -8
.L60:
	.word	.L55
	.word	.L56
	.word	.L57
	.word	.L58
	.word	.L59
.L55:
	.loc 1 1360 0
	movw	r3, #:lower16:.LANCHOR0
	movt	r3, #:upper16:.LANCHOR0
	mov	r2, #0
	strb	r2, [r3, #15]
	.loc 1 1361 0
	b	.L61
.L56:
	.loc 1 1363 0
	movw	r3, #:lower16:.LANCHOR0
	movt	r3, #:upper16:.LANCHOR0
	mov	r2, #1
	strb	r2, [r3, #15]
	.loc 1 1364 0
	b	.L61
.L57:
	.loc 1 1366 0
	movw	r3, #:lower16:.LANCHOR0
	movt	r3, #:upper16:.LANCHOR0
	mov	r2, #2
	strb	r2, [r3, #15]
	.loc 1 1367 0
	b	.L61
.L58:
	.loc 1 1369 0
	movw	r3, #:lower16:.LANCHOR0
	movt	r3, #:upper16:.LANCHOR0
	mov	r2, #3
	strb	r2, [r3, #15]
	.loc 1 1370 0
	b	.L61
.L59:
	.loc 1 1372 0
	movw	r3, #:lower16:.LANCHOR0
	movt	r3, #:upper16:.LANCHOR0
	mov	r2, #4
	strb	r2, [r3, #15]
	.loc 1 1373 0
	b	.L61
.L54:
	.loc 1 1375 0
	movw	r3, #:lower16:.LANCHOR0
	movt	r3, #:upper16:.LANCHOR0
	mov	r2, #0
	strb	r2, [r3, #15]
.L61:
	.loc 1 1378 0
	movw	r3, #:lower16:FLG_ID_SYSTEM_MANAGER
	movt	r3, #:upper16:FLG_ID_SYSTEM_MANAGER
	ldrsh	r0, [r3, #0]
.LVL35:
	mov	r1, #4096
	bl	cmaFlagSet
	.loc 1 1379 0
	ldmfd	sp!, {r3, pc}
	.cfi_endproc
.LFE20:
	.fnend
	.size	system_mng_flash_boot_set_command, .-system_mng_flash_boot_set_command
	.align	2
	.global	system_usb_power_req
	.type	system_usb_power_req, %function
system_usb_power_req:
	.fnstart
.LFB11:
	.loc 1 1079 0
	.cfi_startproc
	@ args = 0, pretend = 0, frame = 0
	@ frame_needed = 0, uses_anonymous_args = 0
	stmfd	sp!, {r3, lr}
	.save {r3, lr}
.LCFI5:
	.cfi_def_cfa_offset 8
	.loc 1 1080 0
	movw	r3, #:lower16:FLG_ID_SYSTEM_MANAGER
	.cfi_offset 14, -4
	.cfi_offset 3, -8
	movt	r3, #:upper16:FLG_ID_SYSTEM_MANAGER
	ldrsh	r0, [r3, #0]
	mov	r1, #8
	bl	cmaFlagSet
	.loc 1 1081 0
	ldmfd	sp!, {r3, pc}
	.cfi_endproc
.LFE11:
	.fnend
	.size	system_usb_power_req, .-system_usb_power_req
	.align	2
	.global	system_image_uncompress_req
	.type	system_image_uncompress_req, %function
system_image_uncompress_req:
	.fnstart
.LFB6:
	.loc 1 859 0
	.cfi_startproc
	@ args = 0, pretend = 0, frame = 0
	@ frame_needed = 0, uses_anonymous_args = 0
.LVL36:
	stmfd	sp!, {r3, lr}
	.save {r3, lr}
.LCFI6:
	.cfi_def_cfa_offset 8
	.loc 1 860 0
	movw	r3, #:lower16:.LANCHOR0
	.cfi_offset 14, -4
	.cfi_offset 3, -8
	movt	r3, #:upper16:.LANCHOR0
	str	r0, [r3, #568]
	.loc 1 862 0
	movw	r3, #:lower16:FLG_ID_SYSTEM_MANAGER
	movt	r3, #:upper16:FLG_ID_SYSTEM_MANAGER
	ldrsh	r0, [r3, #0]
.LVL37:
	mov	r1, #268435456
	bl	cmaFlagSet
	.loc 1 864 0
	ldmfd	sp!, {r3, pc}
	.cfi_endproc
.LFE6:
	.fnend
	.size	system_image_uncompress_req, .-system_image_uncompress_req
	.align	2
	.global	system_mng_recovery_rd_byte
	.type	system_mng_recovery_rd_byte, %function
system_mng_recovery_rd_byte:
	.fnstart
.LFB25:
	.loc 1 1433 0
	.cfi_startproc
	@ args = 0, pretend = 0, frame = 0
	@ frame_needed = 0, uses_anonymous_args = 0
.LVL38:
	stmfd	sp!, {r3, lr}
	.save {r3, lr}
.LCFI7:
	.cfi_def_cfa_offset 8
	.loc 1 1434 0
	.cfi_offset 14, -4
	.cfi_offset 3, -8
	bl	flash_boot_recovery_rd_byte
.LVL39:
	.loc 1 1435 0
	ldmfd	sp!, {r3, pc}
	.cfi_endproc
.LFE25:
	.fnend
	.size	system_mng_recovery_rd_byte, .-system_mng_recovery_rd_byte
	.align	2
	.global	system_mng_recovery_write
	.type	system_mng_recovery_write, %function
system_mng_recovery_write:
	.fnstart
.LFB24:
	.loc 1 1422 0
	.cfi_startproc
	@ args = 0, pretend = 0, frame = 0
	@ frame_needed = 0, uses_anonymous_args = 0
.LVL40:
	stmfd	sp!, {r3, lr}
	.save {r3, lr}
.LCFI8:
	.cfi_def_cfa_offset 8
	.loc 1 1423 0
	.cfi_offset 14, -4
	.cfi_offset 3, -8
	bl	flash_boot_recovery_wr_byte
.LVL41:
	.loc 1 1424 0
	ldmfd	sp!, {r3, pc}
	.cfi_endproc
.LFE24:
	.fnend
	.size	system_mng_recovery_write, .-system_mng_recovery_write
	.align	2
	.global	system_mng_boot_linux_erase
	.type	system_mng_boot_linux_erase, %function
system_mng_boot_linux_erase:
	.fnstart
.LFB23:
	.loc 1 1410 0
	.cfi_startproc
	@ args = 0, pretend = 0, frame = 0
	@ frame_needed = 0, uses_anonymous_args = 0
	stmfd	sp!, {r3, lr}
	.save {r3, lr}
.LCFI9:
	.cfi_def_cfa_offset 8
	.loc 1 1411 0
	.cfi_offset 14, -4
	.cfi_offset 3, -8
	bl	flash_boot_linux_recovery_erase
	.loc 1 1412 0
	ldmfd	sp!, {r3, pc}
	.cfi_endproc
.LFE23:
	.fnend
	.size	system_mng_boot_linux_erase, .-system_mng_boot_linux_erase
	.align	2
	.global	system_mng_boot_itron_erase
	.type	system_mng_boot_itron_erase, %function
system_mng_boot_itron_erase:
	.fnstart
.LFB22:
	.loc 1 1399 0
	.cfi_startproc
	@ args = 0, pretend = 0, frame = 0
	@ frame_needed = 0, uses_anonymous_args = 0
	stmfd	sp!, {r3, lr}
	.save {r3, lr}
.LCFI10:
	.cfi_def_cfa_offset 8
	.loc 1 1400 0
	.cfi_offset 14, -4
	.cfi_offset 3, -8
	bl	flash_boot_itron_recovery_erase
	.loc 1 1401 0
	ldmfd	sp!, {r3, pc}
	.cfi_endproc
.LFE22:
	.fnend
	.size	system_mng_boot_itron_erase, .-system_mng_boot_itron_erase
	.align	2
	.global	system_mng_recovery_erase
	.type	system_mng_recovery_erase, %function
system_mng_recovery_erase:
	.fnstart
.LFB21:
	.loc 1 1388 0
	.cfi_startproc
	@ args = 0, pretend = 0, frame = 0
	@ frame_needed = 0, uses_anonymous_args = 0
	stmfd	sp!, {r3, lr}
	.save {r3, lr}
.LCFI11:
	.cfi_def_cfa_offset 8
	.loc 1 1389 0
	.cfi_offset 14, -4
	.cfi_offset 3, -8
	bl	flash_boot_recovery_erase
	.loc 1 1390 0
	ldmfd	sp!, {r3, pc}
	.cfi_endproc
.LFE21:
	.fnend
	.size	system_mng_recovery_erase, .-system_mng_recovery_erase
	.align	2
	.global	system_mng_flash_boot_command_clr
	.type	system_mng_flash_boot_command_clr, %function
system_mng_flash_boot_command_clr:
	.fnstart
.LFB19:
	.loc 1 1351 0
	.cfi_startproc
	@ args = 0, pretend = 0, frame = 0
	@ frame_needed = 0, uses_anonymous_args = 0
	stmfd	sp!, {r3, lr}
	.save {r3, lr}
.LCFI12:
	.cfi_def_cfa_offset 8
	.loc 1 1352 0
	.cfi_offset 14, -4
	.cfi_offset 3, -8
	bl	flash_boot_mode_reset
	.loc 1 1353 0
	ldmfd	sp!, {r3, pc}
	.cfi_endproc
.LFE19:
	.fnend
	.size	system_mng_flash_boot_command_clr, .-system_mng_flash_boot_command_clr
	.align	2
	.global	system_mng_boot_mode_exec
	.type	system_mng_boot_mode_exec, %function
system_mng_boot_mode_exec:
	.fnstart
.LFB17:
	.loc 1 1313 0
	.cfi_startproc
	@ args = 0, pretend = 0, frame = 0
	@ frame_needed = 0, uses_anonymous_args = 0
	stmfd	sp!, {r3, lr}
	.save {r3, lr}
.LCFI13:
	.cfi_def_cfa_offset 8
	.loc 1 1315 0
	.cfi_offset 14, -4
	.cfi_offset 3, -8
	bl	system_mng_flash_boot_get_command
	.loc 1 1316 0
	cmp	r0, #4
	ldrls	pc, [pc, r0, asl #2]
	b	.L80
.L86:
	.word	.L81
	.word	.L82
	.word	.L83
	.word	.L84
	.word	.L85
.L81:
	.loc 1 1319 0
	mov	r0, #0
	bl	flash_boot_mode_set
	.loc 1 1320 0
	mov	r0, #0
	bl	system_mng_restart_mode_set
	.loc 1 1321 0
	b	.L80
.L82:
	.loc 1 1323 0
	mov	r0, #1
	bl	flash_boot_mode_set
	.loc 1 1324 0
	mov	r0, #3
	bl	system_mng_restart_mode_set
	.loc 1 1325 0
	b	.L80
.L83:
	.loc 1 1327 0
	mov	r0, #2
	bl	flash_boot_mode_set
	.loc 1 1328 0
	mov	r0, #1
	bl	system_mng_restart_mode_set
	.loc 1 1329 0
	b	.L80
.L84:
	.loc 1 1331 0
	mov	r0, #3
	bl	flash_boot_mode_set
	.loc 1 1332 0
	mov	r0, #2
	bl	system_mng_restart_mode_set
	.loc 1 1333 0
	b	.L80
.L85:
	.loc 1 1335 0
	mov	r0, #4
	bl	flash_boot_mode_set
	.loc 1 1336 0
	mov	r0, #2
	bl	system_mng_restart_mode_set
.L80:
	.loc 1 1342 0
	movw	r3, #:lower16:FLG_ID_SYSTEM_MANAGER
	movt	r3, #:upper16:FLG_ID_SYSTEM_MANAGER
	ldrsh	r0, [r3, #0]
	mov	r1, #8192
	bl	cmaFlagSet
	.loc 1 1344 0
	ldmfd	sp!, {r3, pc}
	.cfi_endproc
.LFE17:
	.fnend
	.size	system_mng_boot_mode_exec, .-system_mng_boot_mode_exec
	.align	2
	.global	TASK_Flash_Write
	.type	TASK_Flash_Write, %function
TASK_Flash_Write:
	.fnstart
.LFB14:
	.loc 1 1251 0
	.cfi_startproc
	@ args = 0, pretend = 0, frame = 8
	@ frame_needed = 0, uses_anonymous_args = 0
.LVL42:
	stmfd	sp!, {r4, r5, r6, r7, r8, r9, sl, fp, lr}
	.save {r4, r5, r6, r7, r8, r9, sl, fp, lr}
.LCFI14:
	.cfi_def_cfa_offset 36
	.pad #20
	sub	sp, sp, #20
.LCFI15:
	.cfi_def_cfa_offset 56
	.loc 1 1259 0
	movw	r3, #:lower16:FLG_ID_SYSTEM_MANAGER
	movt	r3, #:upper16:FLG_ID_SYSTEM_MANAGER
	.loc 1 1258 0
	mov	r5, #0
	.cfi_offset 14, -4
	.cfi_offset 11, -8
	.cfi_offset 10, -12
	.cfi_offset 9, -16
	.cfi_offset 8, -20
	.cfi_offset 7, -24
	.cfi_offset 6, -28
	.cfi_offset 5, -32
	.cfi_offset 4, -36
	.loc 1 1259 0
	ldrsh	r4, [r3, #0]
	add	r7, sp, #12
	mvn	r8, #0
	movw	sl, #12320
	mov	r6, #1
	.loc 1 1263 0
	mvn	fp, #32
	.loc 1 1264 0
	movw	r9, #:lower16:.LANCHOR0
	movt	r9, #:upper16:.LANCHOR0
.LVL43:
.L98:
	.loc 1 1258 0
	str	r5, [sp, #12]
.LVL44:
	.loc 1 1259 0
	str	r8, [sp, #0]
	mov	r0, r4
.LVL45:
	mov	r1, sl
	mov	r2, r6
	mov	r3, r7
	bl	cmaFlagTwai
	.loc 1 1261 0
	ldr	r3, [sp, #12]
	tst	r3, #32
	beq	.L90
.LVL46:
	.loc 1 1263 0
	mov	r0, r4
	mov	r1, fp
	bl	cmaFlagClr
.LVL47:
	.loc 1 1264 0
	ldr	r3, [r9, #8]
	cmp	r3, #0
	beq	.L90
	.loc 1 1266 0
	blx	r3
.LVL48:
.L90:
	.loc 1 1269 0
	ldr	r3, [sp, #12]
	tst	r3, #4096
	beq	.L91
.LVL49:
	.loc 1 1271 0
	mov	r0, r4
	mvn	r1, #4096
	bl	cmaFlagClr
.LVL50:
	.loc 1 1272 0
	bl	system_mng_boot_mode_exec
.LVL51:
.L91:
	.loc 1 1274 0
	ldr	r3, [sp, #12]
	tst	r3, #8192
	beq	.L98
.LVL52:
	.loc 1 1276 0
	mov	r0, r4
	mvn	r1, #8192
	bl	cmaFlagClr
.LVL53:
	.loc 1 1279 0
	bl	system_mng_restart_mode_get
	strb	r0, [r9, #572]
	.loc 1 1280 0
	cmp	r0, #3
	ldrls	pc, [pc, r0, asl #2]
	b	.L98
.L96:
	.word	.L92
	.word	.L93
	.word	.L94
	.word	.L95
.L92:
	.loc 1 1283 0
	mov	r0, r5
	bl	keydcd_testmode_detect_data_send
	.loc 1 1284 0
	b	.L98
.L93:
	.loc 1 1286 0
	mov	r0, r6
	bl	keydcd_testmode_detect_data_send
	.loc 1 1287 0
	b	.L98
.L95:
	.loc 1 1289 0
	mov	r0, #3
	bl	keydcd_testmode_detect_data_send
	.loc 1 1290 0
	b	.L98
.L94:
	.loc 1 1292 0
	mov	r0, #2
	bl	keydcd_testmode_detect_data_send
	b	.L98
	.cfi_endproc
.LFE14:
	.fnend
	.size	TASK_Flash_Write, .-TASK_Flash_Write
	.align	2
	.global	system_flash_write_req
	.type	system_flash_write_req, %function
system_flash_write_req:
	.fnstart
.LFB10:
	.loc 1 1013 0
	.cfi_startproc
	@ args = 0, pretend = 0, frame = 0
	@ frame_needed = 0, uses_anonymous_args = 0
.LVL54:
	stmfd	sp!, {r3, lr}
	.save {r3, lr}
.LCFI16:
	.cfi_def_cfa_offset 8
	.loc 1 1014 0
	cmp	r0, #11
	ldrls	pc, [pc, r0, asl #2]
	b	.L114
	.cfi_offset 14, -4
	.cfi_offset 3, -8
.L113:
	.word	.L101
	.word	.L102
	.word	.L103
	.word	.L104
	.word	.L105
	.word	.L106
	.word	.L107
	.word	.L108
	.word	.L109
	.word	.L110
	.word	.L111
	.word	.L112
.L101:
	.loc 1 1017 0
	movw	r3, #:lower16:FLG_ID_SYSTEM_MANAGER
	movt	r3, #:upper16:FLG_ID_SYSTEM_MANAGER
	ldrsh	r0, [r3, #0]
.LVL55:
	mov	r1, #1
	bl	cmaFlagSet
	.loc 1 1018 0
	ldmfd	sp!, {r3, pc}
.LVL56:
.L102:
	.loc 1 1020 0
	movw	r3, #:lower16:FLG_ID_SYSTEM_MANAGER
	movt	r3, #:upper16:FLG_ID_SYSTEM_MANAGER
	ldrsh	r0, [r3, #0]
.LVL57:
	mov	r1, #2
	bl	cmaFlagSet
	.loc 1 1021 0
	ldmfd	sp!, {r3, pc}
.LVL58:
.L103:
	.loc 1 1023 0
	movw	r3, #:lower16:FLG_ID_SYSTEM_MANAGER
	movt	r3, #:upper16:FLG_ID_SYSTEM_MANAGER
	ldrsh	r0, [r3, #0]
.LVL59:
	mov	r1, #4
	bl	cmaFlagSet
	.loc 1 1024 0
	ldmfd	sp!, {r3, pc}
.LVL60:
.L104:
	.loc 1 1026 0
	movw	r3, #:lower16:FLG_ID_SYSTEM_MANAGER
	movt	r3, #:upper16:FLG_ID_SYSTEM_MANAGER
	ldrsh	r0, [r3, #0]
.LVL61:
	mov	r1, #16
	bl	cmaFlagSet
	.loc 1 1027 0
	ldmfd	sp!, {r3, pc}
.LVL62:
.L105:
	.loc 1 1029 0
	movw	r3, #:lower16:FLG_ID_SYSTEM_MANAGER
	movt	r3, #:upper16:FLG_ID_SYSTEM_MANAGER
	ldrsh	r0, [r3, #0]
.LVL63:
	mov	r1, #32
	bl	cmaFlagSet
	.loc 1 1030 0
	ldmfd	sp!, {r3, pc}
.LVL64:
.L106:
	.loc 1 1033 0
	movw	r3, #:lower16:FLG_ID_SYSTEM_MANAGER
	movt	r3, #:upper16:FLG_ID_SYSTEM_MANAGER
	ldrsh	r0, [r3, #0]
.LVL65:
	mov	r1, #64
	bl	cmaFlagSet
	.loc 1 1034 0
	ldmfd	sp!, {r3, pc}
.LVL66:
.L107:
	.loc 1 1036 0
	movw	r3, #:lower16:FLG_ID_SYSTEM_MANAGER
	movt	r3, #:upper16:FLG_ID_SYSTEM_MANAGER
	ldrsh	r0, [r3, #0]
.LVL67:
	mov	r1, #128
	bl	cmaFlagSet
	.loc 1 1037 0
	ldmfd	sp!, {r3, pc}
.LVL68:
.L108:
	.loc 1 1039 0
	movw	r3, #:lower16:FLG_ID_SYSTEM_MANAGER
	movt	r3, #:upper16:FLG_ID_SYSTEM_MANAGER
	ldrsh	r0, [r3, #0]
.LVL69:
	mov	r1, #256
	bl	cmaFlagSet
	.loc 1 1040 0
	ldmfd	sp!, {r3, pc}
.LVL70:
.L109:
	.loc 1 1042 0
	movw	r3, #:lower16:FLG_ID_SYSTEM_MANAGER
	movt	r3, #:upper16:FLG_ID_SYSTEM_MANAGER
	ldrsh	r0, [r3, #0]
.LVL71:
	mov	r1, #512
	bl	cmaFlagSet
	.loc 1 1043 0
	ldmfd	sp!, {r3, pc}
.LVL72:
.L110:
	.loc 1 1045 0
	movw	r3, #:lower16:FLG_ID_SYSTEM_MANAGER
	movt	r3, #:upper16:FLG_ID_SYSTEM_MANAGER
	ldrsh	r0, [r3, #0]
.LVL73:
	mov	r1, #1024
	bl	cmaFlagSet
	.loc 1 1046 0
	ldmfd	sp!, {r3, pc}
.LVL74:
.L111:
	.loc 1 1048 0
	movw	r3, #:lower16:FLG_ID_SYSTEM_MANAGER
	movt	r3, #:upper16:FLG_ID_SYSTEM_MANAGER
	ldrsh	r0, [r3, #0]
.LVL75:
	mov	r1, #2048
	bl	cmaFlagSet
	.loc 1 1049 0
	ldmfd	sp!, {r3, pc}
.LVL76:
.L112:
	.loc 1 1053 0
	bl	stsMng_mng_disp_save_app_icon_package_name
.LVL77:
.L114:
	ldmfd	sp!, {r3, pc}
	.cfi_endproc
.LFE10:
	.fnend
	.size	system_flash_write_req, .-system_flash_write_req
	.align	2
	.global	TASK_System_Manager
	.type	TASK_System_Manager, %function
TASK_System_Manager:
	.fnstart
.LFB5:
	.loc 1 411 0
	.cfi_startproc
	@ args = 0, pretend = 0, frame = 8
	@ frame_needed = 0, uses_anonymous_args = 0
.LVL78:
	stmfd	sp!, {r4, r5, r6, r7, r8, r9, sl, fp, lr}
	.save {r4, r5, r6, r7, r8, r9, sl, fp, lr}
.LCFI17:
	.cfi_def_cfa_offset 36
	.pad #20
	sub	sp, sp, #20
.LCFI18:
	.cfi_def_cfa_offset 56
	.loc 1 424 0
	movw	r3, #:lower16:FLG_ID_SYSTEM_MANAGER
	movt	r3, #:upper16:FLG_ID_SYSTEM_MANAGER
	ldrh	r8, [r3, #0]
	.cfi_offset 14, -4
	.cfi_offset 11, -8
	.cfi_offset 10, -12
	.cfi_offset 9, -16
	.cfi_offset 8, -20
	.cfi_offset 7, -24
	.cfi_offset 6, -28
	.cfi_offset 5, -32
	.cfi_offset 4, -36
	movw	sl, #:lower16:-268433377
	movt	sl, #:upper16:-268433377
	add	r9, sp, #12
.LBB4:
.LBB5:
	.loc 1 1462 0
	movw	fp, #:lower16:.LANCHOR0
	movt	fp, #:upper16:.LANCHOR0
	add	r6, fp, #16
	.loc 1 1482 0
	add	r7, fp, #272
	.loc 1 1506 0
	add	fp, fp, #528
.LVL79:
.L129:
.LBE5:
.LBE4:
	.loc 1 423 0
	mov	r3, #0
	str	r3, [sp, #12]
.LVL80:
	.loc 1 424 0
	mov	r3, #100
	str	r3, [sp, #0]
	sxth	r0, r8
.LVL81:
	mov	r1, sl
	mov	r2, #1
	mov	r3, r9
	bl	cmaFlagTwai
	.loc 1 426 0
	cmp	r0, #1
	bne	.L129
	.loc 1 428 0
	ldr	r3, [sp, #12]
	tst	r3, #2048
	beq	.L117
.LVL82:
	mov	r4, #0
	mov	r5, r4
.LVL83:
.L120:
.LBB7:
.LBB6:
	.loc 1 1462 0
	ldr	r3, [r6, r4]
	cmp	r3, #0
	ble	.L118
	.loc 1 1464 0
	sub	r3, r3, #1
	str	r3, [r6, r4]
	cmp	r3, #0
	bne	.L118
	.loc 1 1466 0
	add	r3, r6, r4
	ldrb	r3, [r3, #4]	@ zero_extendqisi2
	cmp	r3, #5
	bne	.L118
	.loc 1 1468 0
	mov	r0, r5
	mov	r1, #3
	bl	PowTimer_AccOnProcGuardTimerClear
.L118:
	.loc 1 1482 0
	ldr	r3, [r7, r4]
	cmp	r3, #0
	ble	.L119
	.loc 1 1484 0
	sub	r3, r3, #1
	str	r3, [r7, r4]
	cmp	r3, #0
	bne	.L119
	.loc 1 1486 0
	add	r3, r7, r4
	ldrb	r3, [r3, #4]	@ zero_extendqisi2
	cmp	r3, #4
	bne	.L119
	.loc 1 1488 0
	mov	r0, r5
	mov	r1, #2
	bl	PowTimer_AccOffProcGuardTimerClear
.L119:
	.loc 1 1460 0
	add	r5, r5, #1
.LVL84:
	uxtb	r5, r5
.LVL85:
	add	r4, r4, #8
	cmp	r5, #32
	bne	.L120
	mov	r4, #0
.L122:
	.loc 1 1506 0
	ldrh	r3, [fp, r4]
	cmp	r3, #0
	beq	.L121
	.loc 1 1508 0
	sub	r3, r3, #1
	uxth	r3, r3
	strh	r3, [fp, r4]	@ movhi
	cmp	r3, #0
	bne	.L121
	.loc 1 1510 0
	add	r3, fp, r4
	ldr	r3, [r3, #4]
	cmp	r3, #0
	beq	.L121
	.loc 1 1512 0
	blx	r3
.L121:
	add	r4, r4, #8
	.loc 1 1504 0
	cmp	r4, #40
	bne	.L122
.LBE6:
.LBE7:
	.loc 1 431 0
	sxth	r0, r8
	mvn	r1, #2048
	bl	cmaFlagClr
	b	.L129
.L117:
	.loc 1 486 0
	tst	r3, #1
	beq	.L123
	.loc 1 488 0
	sxth	r0, r8
	mvn	r1, #1
	bl	cmaFlagClr
	.loc 1 489 0
	mov	r0, #225
	bl	cmaFlashMemoryBackupWrite
	b	.L129
.L123:
	.loc 1 491 0
	tst	r3, #2
	beq	.L124
	.loc 1 493 0
	sxth	r0, r8
	mvn	r1, #2
	bl	cmaFlagClr
	.loc 1 494 0
	mov	r0, #226
	bl	cmaFlashMemoryBackupWrite
	b	.L129
.L124:
	.loc 1 496 0
	tst	r3, #4
	beq	.L125
	.loc 1 498 0
	sxth	r0, r8
	mvn	r1, #4
	bl	cmaFlagClr
	.loc 1 499 0
	mov	r0, #227
	bl	cmaFlashMemoryBackupWrite
	.loc 1 500 0
	mov	r0, #228
	bl	cmaFlashMemoryBackupWrite
	.loc 1 501 0
	mov	r0, #229
	bl	cmaFlashMemoryBackupWrite
	b	.L129
.L125:
	.loc 1 503 0
	tst	r3, #16
	beq	.L129
	.loc 1 505 0
	sxth	r0, r8
	mvn	r1, #16
	bl	cmaFlagClr
	.loc 1 506 0
	mov	r0, #230
	bl	cmaFlashMemoryBackupWrite
	b	.L129
	.cfi_endproc
.LFE5:
	.fnend
	.size	TASK_System_Manager, .-TASK_System_Manager
	.align	2
	.type	system_manager_check_product_info, %function
system_manager_check_product_info:
	.fnstart
.LFB0:
	.loc 1 199 0
	.cfi_startproc
	@ args = 0, pretend = 0, frame = 0
	@ frame_needed = 0, uses_anonymous_args = 0
.LVL86:
	stmfd	sp!, {r4, lr}
	.save {r4, lr}
.LCFI19:
	.cfi_def_cfa_offset 8
	mov	r4, r0
	.cfi_offset 14, -4
	.cfi_offset 4, -8
	.loc 1 202 0
	movw	r3, #:lower16:2023117859
	movt	r3, #:upper16:2023117859
	ldr	r2, [r0, #0]
	cmp	r2, r3
	bne	.L131
	.loc 1 207 0
	add	r0, r0, #4
.LVL87:
	mov	r1, #6
	bl	calculate_checksum
	.loc 1 209 0
	ldrb	r3, [r4, #10]	@ zero_extendqisi2
	uxtb	r0, r0
	cmp	r3, r0
	bne	.L131
	.loc 1 214 0
	add	r0, r4, #11
	mov	r1, #6
	bl	calculate_checksum
	.loc 1 216 0
	ldrb	r3, [r4, #17]	@ zero_extendqisi2
	uxtb	r0, r0
	cmp	r3, r0
	bne	.L131
	.loc 1 221 0
	add	r0, r4, #18
	mov	r1, #4
	bl	calculate_checksum
	.loc 1 223 0
	ldrb	r3, [r4, #22]	@ zero_extendqisi2
	uxtb	r0, r0
	cmp	r3, r0
	bne	.L131
	.loc 1 228 0
	mov	r0, r4
	mov	r1, #23
	bl	calculate_checksum
	ldrb	r3, [r4, #23]	@ zero_extendqisi2
	uxtb	r0, r0
	cmp	r3, r0
	movne	r0, #0
	moveq	r0, #1
	ldmfd	sp!, {r4, pc}
.LVL88:
.L131:
	mov	r0, #0
	.loc 1 236 0
	ldmfd	sp!, {r4, pc}
	.cfi_endproc
.LFE0:
	.fnend
	.size	system_manager_check_product_info, .-system_manager_check_product_info
	.align	2
	.type	system_manager_set_product_info_to_default, %function
system_manager_set_product_info_to_default:
	.fnstart
.LFB1:
	.loc 1 239 0
	.cfi_startproc
	@ args = 0, pretend = 0, frame = 0
	@ frame_needed = 0, uses_anonymous_args = 0
.LVL89:
	stmfd	sp!, {r3, r4, r5, lr}
	.save {r3, r4, r5, lr}
.LCFI20:
	.cfi_def_cfa_offset 16
	mov	r4, r0
	.cfi_offset 14, -4
	.cfi_offset 5, -8
	.cfi_offset 4, -12
	.cfi_offset 3, -16
	.loc 1 242 0
	movw	r3, #:lower16:2023117859
	movt	r3, #:upper16:2023117859
	str	r3, [r0, #0]
	.loc 1 246 0
	mvn	r3, #0
	strb	r3, [r0, #4]
	strb	r3, [r0, #5]
	strb	r3, [r0, #6]
	strb	r3, [r0, #7]
	strb	r3, [r0, #8]
	strb	r3, [r0, #9]
	.loc 1 249 0
	add	r0, r0, #4
.LVL90:
	mov	r1, #6
	bl	calculate_checksum
	strb	r0, [r4, #10]
	.loc 1 255 0
	mov	r3, #80
	strb	r3, [r4, #11]
	.loc 1 256 0
	mov	r3, #69
	strb	r3, [r4, #12]
	.loc 1 257 0
	mov	r3, #72
	strb	r3, [r4, #13]
	.loc 1 259 0
	mov	r3, #52
	strb	r3, [r4, #14]
	.loc 1 260 0
	strb	r3, [r4, #15]
	.loc 1 261 0
	mov	r5, #48
	strb	r5, [r4, #16]
	.loc 1 284 0
	add	r0, r4, #11
	mov	r1, #6
	bl	calculate_checksum
	strb	r0, [r4, #17]
	.loc 1 290 0
	mov	r3, #50
	strb	r3, [r4, #18]
	.loc 1 291 0
	strb	r5, [r4, #19]
	.loc 1 292 0
	mov	r3, #49
	strb	r3, [r4, #20]
	.loc 1 293 0
	mov	r3, #53
	strb	r3, [r4, #21]
	.loc 1 295 0
	add	r0, r4, #18
	mov	r1, #4
	bl	calculate_checksum
	strb	r0, [r4, #22]
	.loc 1 297 0
	mov	r0, r4
	mov	r1, #23
	bl	calculate_checksum
	strb	r0, [r4, #23]
	.loc 1 298 0
	ldmfd	sp!, {r3, r4, r5, pc}
	.cfi_endproc
.LFE1:
	.fnend
	.size	system_manager_set_product_info_to_default, .-system_manager_set_product_info_to_default
	.align	2
	.global	system_manager_init
	.type	system_manager_init, %function
system_manager_init:
	.fnstart
.LFB4:
	.loc 1 342 0
	.cfi_startproc
	@ args = 0, pretend = 0, frame = 0
	@ frame_needed = 0, uses_anonymous_args = 0
	stmfd	sp!, {r3, r4, r5, lr}
	.save {r3, r4, r5, lr}
.LCFI21:
	.cfi_def_cfa_offset 16
	.loc 1 346 0
	movw	r3, #:lower16:.LANCHOR0
	.cfi_offset 14, -4
	.cfi_offset 5, -8
	.cfi_offset 4, -12
	.cfi_offset 3, -16
	movt	r3, #:upper16:.LANCHOR0
	mov	r2, #0
	str	r2, [r3, #568]
	.loc 1 347 0
	str	r2, [r3, #576]
	.loc 1 348 0
	str	r2, [r3, #4]
	.loc 1 349 0
	str	r2, [r3, #8]
	.loc 1 351 0
	movw	r4, #:lower16:PRODUCT_INFO
	movt	r4, #:upper16:PRODUCT_INFO
	mov	r0, #56
	mov	r1, r4
	bl	cmaFlashMemorySIDRead
	.loc 1 354 0
	mov	r0, r4
	bl	system_manager_check_product_info
	mov	r5, r0
.LVL91:
	.loc 1 357 0
	add	r0, r4, #28
	bl	system_manager_check_product_info
	.loc 1 359 0
	cmp	r5, #1
	movne	r3, #0
	moveq	r3, #1
	cmp	r0, #1
	cmpeq	r5, #1
.LVL92:
	ldmeqfd	sp!, {r3, r4, r5, pc}
	.loc 1 364 0
	orr	r5, r0, r5
.LVL93:
	tst	r5, #255
	bne	.L138
	.loc 1 368 0
	mov	r5, r4
	mov	r0, r4
.LVL94:
	bl	system_manager_set_product_info_to_default
	.loc 1 369 0
	add	r0, r4, #28
	bl	system_manager_set_product_info_to_default
	.loc 1 371 0
	mov	r0, #56
	mov	r1, r4
	bl	cmaFlashMemorySIDWrite
	ldmfd	sp!, {r3, r4, r5, pc}
.LVL95:
.L138:
	.loc 1 372 0
	cmp	r3, #0
	beq	.L139
	.loc 1 375 0
	ldr	r1, .L141
	mov	r0, r1
.LVL96:
	sub	r1, r1, #28
	mov	r2, #28
	bl	memcpy_b
	.loc 1 377 0
	mov	r0, #56
	mov	r1, r4
	bl	cmaFlashMemorySIDWrite
	ldmfd	sp!, {r3, r4, r5, pc}
.LVL97:
.L139:
	.loc 1 381 0
	movw	r1, #:lower16:PRODUCT_INFO
	movt	r1, #:upper16:PRODUCT_INFO
	mov	r0, r1
.LVL98:
	add	r1, r1, #28
	mov	r2, #28
	bl	memcpy_b
	.loc 1 383 0
	mov	r0, #56
	mov	r1, r4
	bl	cmaFlashMemorySIDWrite
	ldmfd	sp!, {r3, r4, r5, pc}
.L142:
	.align	2
.L141:
	.word	PRODUCT_INFO+28
	.cfi_endproc
.LFE4:
	.fnend
	.size	system_manager_init, .-system_manager_init
	.align	2
	.global	system_manager_set_serial_no
	.type	system_manager_set_serial_no, %function
system_manager_set_serial_no:
	.fnstart
.LFB3:
	.loc 1 306 0
	.cfi_startproc
	@ args = 0, pretend = 0, frame = 0
	@ frame_needed = 0, uses_anonymous_args = 0
.LVL99:
	stmfd	sp!, {r4, lr}
	.save {r4, lr}
.LCFI22:
	.cfi_def_cfa_offset 8
	.loc 1 306 0
	ldr	r2, .L147
	mov	r3, #0
	.loc 1 310 0
	movw	lr, #:lower16:PRODUCT_INFO
	.cfi_offset 14, -4
	.cfi_offset 4, -8
	movt	lr, #:upper16:PRODUCT_INFO
.L144:
	add	r1, lr, r3
	ldrb	ip, [r0, r3]	@ zero_extendqisi2
	strb	ip, [r1, #4]
	.loc 1 311 0
	ldrb	r1, [r0, r3]	@ zero_extendqisi2
	strb	r1, [r2, #28]
	add	r3, r3, #1
	add	r2, r2, #1
	.loc 1 308 0
	cmp	r3, #6
	bne	.L144
	.loc 1 314 0
	ldr	r4, .L147
	mov	r0, r4
.LVL100:
	mov	r1, #6
	bl	calculate_checksum
	uxtb	r0, r0
	sub	r4, r4, #4
	strb	r0, [r4, #10]
	.loc 1 315 0
	strb	r0, [r4, #38]
	.loc 1 317 0
	mov	r0, r4
	mov	r1, #23
	bl	calculate_checksum
	uxtb	r0, r0
	strb	r0, [r4, #23]
	.loc 1 318 0
	strb	r0, [r4, #51]
	.loc 1 320 0
	mov	r0, #56
	mov	r1, r4
	bl	cmaFlashMemorySIDWrite
	.loc 1 321 0
	ldmfd	sp!, {r4, pc}
.L148:
	.align	2
.L147:
	.word	PRODUCT_INFO+4
	.cfi_endproc
.LFE3:
	.fnend
	.size	system_manager_set_serial_no, .-system_manager_set_serial_no
	.global	wallpaper_mark
	.comm	s_UartCallBack,64,4
	.comm	PRODUCT_INFO,56,4
	.bss
	.align	2
	.set	.LANCHOR0,. + 0
	.type	wallpaper_backup_sts, %object
	.size	wallpaper_backup_sts, 1
wallpaper_backup_sts:
	.space	1
	.space	3
	.type	wallpaper_backup_func, %object
	.size	wallpaper_backup_func, 4
wallpaper_backup_func:
	.space	4
	.type	app_icon_write_func, %object
	.size	app_icon_write_func, 4
app_icon_write_func:
	.space	4
	.type	wallpaper_mark, %object
	.size	wallpaper_mark, 2
wallpaper_mark:
	.space	2
	.type	restart_mode, %object
	.size	restart_mode, 1
restart_mode:
	.space	1
	.type	sys_boot_mode_cmd, %object
	.size	sys_boot_mode_cmd, 1
sys_boot_mode_cmd:
	.space	1
	.type	Pow_AccOnTimer, %object
	.size	Pow_AccOnTimer, 256
Pow_AccOnTimer:
	.space	256
	.type	Pow_AccOffTimer, %object
	.size	Pow_AccOffTimer, 256
Pow_AccOffTimer:
	.space	256
	.type	Pow_TimerCount, %object
	.size	Pow_TimerCount, 40
Pow_TimerCount:
	.space	40
	.type	image_uncompress_func, %object
	.size	image_uncompress_func, 4
image_uncompress_func:
	.space	4
	.type	start_mode_val.26385, %object
	.size	start_mode_val.26385, 1
start_mode_val.26385:
	.space	1
	.space	3
	.type	prg_uncompress_func, %object
	.size	prg_uncompress_func, 4
prg_uncompress_func:
	.space	4
	.text
.Letext0: