	.cpu cortex-a9
	.eabi_attribute 27, 3
	.fpu neon
	.eabi_attribute 20, 1
	.eabi_attribute 21, 1
	.eabi_attribute 23, 3
	.eabi_attribute 24, 1
	.eabi_attribute 25, 1
	.eabi_attribute 26, 1
	.eabi_attribute 30, 1
	.eabi_attribute 18, 4
	.file	"NGOnsSpImg.c"
	.text
.Ltext0:
	.cfi_sections	.debug_frame
	.align	2
	.type	NGOnsSpImg_BaseClassInit, %function
NGOnsSpImg_BaseClassInit:
	.fnstart
.LFB18:
	.file 1 "NGOnsSpImg.c"
	.loc 1 264 0
	.cfi_startproc
	@ args = 0, pretend = 0, frame = 0
	@ frame_needed = 0, uses_anonymous_args = 0
	@ link register save eliminated.
.LVL0:
	.loc 1 264 0
	movw	r3, #:lower16:NGOnsSpImg_Ctor
	movt	r3, #:upper16:NGOnsSpImg_Ctor
	str	r3, [r0, #0]
	movw	r3, #:lower16:NGOnsSpImg_Dtor
	movt	r3, #:upper16:NGOnsSpImg_Dtor
	str	r3, [r0, #4]
	mov	r3, #0
	str	r3, [r0, #8]
	str	r3, [r0, #12]
	mov	r3, #172	@ movhi
	strh	r3, [r0, #28]	@ movhi
	bx	lr
	.cfi_endproc
.LFE18:
	.fnend
	.size	NGOnsSpImg_BaseClassInit, .-NGOnsSpImg_BaseClassInit
	.align	2
	.global	NGOnsSpImg_GetType
	.type	NGOnsSpImg_GetType, %function
NGOnsSpImg_GetType:
	.fnstart
.LFB19:
	.loc 1 264 0
	.cfi_startproc
	@ args = 0, pretend = 0, frame = 0
	@ frame_needed = 0, uses_anonymous_args = 0
	stmfd	sp!, {r3, lr}
	.save {r3, lr}
.LCFI0:
	.cfi_def_cfa_offset 8
	.loc 1 264 0
	movw	r3, #:lower16:.LANCHOR0
	.cfi_offset 14, -4
	.cfi_offset 3, -8
	movt	r3, #:upper16:.LANCHOR0
	ldrh	r3, [r3, #0]
	cmp	r3, #0
	bne	.L4
	bl	NGOns_GetType
	mov	r1, r0
	movw	r0, #:lower16:.LANCHOR1
	movt	r0, #:upper16:.LANCHOR1
	bl	NGType_RegisterObjectType
	movw	r3, #:lower16:.LANCHOR0
	movt	r3, #:upper16:.LANCHOR0
	strh	r0, [r3, #0]	@ movhi
.L4:
	movw	r3, #:lower16:.LANCHOR0
	movt	r3, #:upper16:.LANCHOR0
	ldrh	r0, [r3, #0]
	ldmfd	sp!, {r3, pc}
	.cfi_endproc
.LFE19:
	.fnend
	.size	NGOnsSpImg_GetType, .-NGOnsSpImg_GetType
	.align	2
	.global	NGOnsSpImg_Property_Text1EnGeometry
	.type	NGOnsSpImg_Property_Text1EnGeometry, %function
NGOnsSpImg_Property_Text1EnGeometry:
	.fnstart
.LFB16:
	.loc 1 235 0
	.cfi_startproc
	@ args = 0, pretend = 0, frame = 0
	@ frame_needed = 0, uses_anonymous_args = 0
.LVL1:
	stmfd	sp!, {r3, lr}
	.save {r3, lr}
.LCFI1:
	.cfi_def_cfa_offset 8
	.loc 1 236 0
	cmp	r0, #0
	bne	.L7
	.cfi_offset 14, -4
	.cfi_offset 3, -8
	mov	r0, #0
.LVL2:
	movw	r1, #:lower16:.LC0
	movt	r1, #:upper16:.LC0
	movw	r2, #:lower16:.LC1
	movt	r2, #:upper16:.LC1
	mov	r3, #236
	bl	DumpCallTrace
	bl	SysdItronCrashDumpReq
.L8:
	b	.L8
.LVL3:
.L7:
	.loc 1 241 0
	add	r0, r0, #162
.LVL4:
	ldmfd	sp!, {r3, pc}
	.cfi_endproc
.LFE16:
	.fnend
	.size	NGOnsSpImg_Property_Text1EnGeometry, .-NGOnsSpImg_Property_Text1EnGeometry
	.align	2
	.global	NGOnsSpImg_Property_SetText1EnGeometry
	.type	NGOnsSpImg_Property_SetText1EnGeometry, %function
NGOnsSpImg_Property_SetText1EnGeometry:
	.fnstart
.LFB15:
	.loc 1 224 0
	.cfi_startproc
	@ args = 0, pretend = 0, frame = 0
	@ frame_needed = 0, uses_anonymous_args = 0
.LVL5:
	stmfd	sp!, {r4, lr}
	.save {r4, lr}
.LCFI2:
	.cfi_def_cfa_offset 8
	.loc 1 225 0
	subs	r4, r0, #0
	.cfi_offset 14, -4
	.cfi_offset 4, -8
	bne	.L11
.LVL6:
	movw	r1, #:lower16:.LC0
.LVL7:
	movt	r1, #:upper16:.LC0
	movw	r2, #:lower16:.LC1
	movt	r2, #:upper16:.LC1
	mov	r3, #225
	bl	DumpCallTrace
	bl	SysdItronCrashDumpReq
.L12:
	b	.L12
.LVL8:
.L11:
	.loc 1 226 0
	cmp	r1, #0
	bne	.L13
	mov	r0, #0
	movw	r1, #:lower16:.LC0
.LVL9:
	movt	r1, #:upper16:.LC0
	movw	r2, #:lower16:.LC1
	movt	r2, #:upper16:.LC1
	mov	r3, #226
	bl	DumpCallTrace
	bl	SysdItronCrashDumpReq
.L14:
	b	.L14
.LVL10:
.L13:
	.loc 1 230 0
	add	r0, r4, #162
	mov	r2, #8
	bl	memcpy
.LVL11:
	.loc 1 231 0
	ldr	r3, [r4, #0]
	ldr	r3, [r3, #428]
	mov	r0, r4
	blx	r3
	.loc 1 232 0
	ldmfd	sp!, {r4, pc}
	.cfi_endproc
.LFE15:
	.fnend
	.size	NGOnsSpImg_Property_SetText1EnGeometry, .-NGOnsSpImg_Property_SetText1EnGeometry
	.align	2
	.global	NGOnsSpImg_Property_Text1ChGeometry
	.type	NGOnsSpImg_Property_Text1ChGeometry, %function
NGOnsSpImg_Property_Text1ChGeometry:
	.fnstart
.LFB14:
	.loc 1 215 0
	.cfi_startproc
	@ args = 0, pretend = 0, frame = 0
	@ frame_needed = 0, uses_anonymous_args = 0
.LVL12:
	stmfd	sp!, {r3, lr}
	.save {r3, lr}
.LCFI3:
	.cfi_def_cfa_offset 8
	.loc 1 216 0
	cmp	r0, #0
	bne	.L17
	.cfi_offset 14, -4
	.cfi_offset 3, -8
	mov	r0, #0
.LVL13:
	movw	r1, #:lower16:.LC0
	movt	r1, #:upper16:.LC0
	movw	r2, #:lower16:.LC1
	movt	r2, #:upper16:.LC1
	mov	r3, #216
	bl	DumpCallTrace
	bl	SysdItronCrashDumpReq
.L18:
	b	.L18
.LVL14:
.L17:
	.loc 1 221 0
	add	r0, r0, #154
.LVL15:
	ldmfd	sp!, {r3, pc}
	.cfi_endproc
.LFE14:
	.fnend
	.size	NGOnsSpImg_Property_Text1ChGeometry, .-NGOnsSpImg_Property_Text1ChGeometry
	.align	2
	.global	NGOnsSpImg_Property_SetText1ChGeometry
	.type	NGOnsSpImg_Property_SetText1ChGeometry, %function
NGOnsSpImg_Property_SetText1ChGeometry:
	.fnstart
.LFB13:
	.loc 1 204 0
	.cfi_startproc
	@ args = 0, pretend = 0, frame = 0
	@ frame_needed = 0, uses_anonymous_args = 0
.LVL16:
	stmfd	sp!, {r4, lr}
	.save {r4, lr}
.LCFI4:
	.cfi_def_cfa_offset 8
	.loc 1 205 0
	subs	r4, r0, #0
	.cfi_offset 14, -4
	.cfi_offset 4, -8
	bne	.L21
.LVL17:
	movw	r1, #:lower16:.LC0
.LVL18:
	movt	r1, #:upper16:.LC0
	movw	r2, #:lower16:.LC1
	movt	r2, #:upper16:.LC1
	mov	r3, #205
	bl	DumpCallTrace
	bl	SysdItronCrashDumpReq
.L22:
	b	.L22
.LVL19:
.L21:
	.loc 1 206 0
	cmp	r1, #0
	bne	.L23
	mov	r0, #0
	movw	r1, #:lower16:.LC0
.LVL20:
	movt	r1, #:upper16:.LC0
	movw	r2, #:lower16:.LC1
	movt	r2, #:upper16:.LC1
	mov	r3, #206
	bl	DumpCallTrace
	bl	SysdItronCrashDumpReq
.L24:
	b	.L24
.LVL21:
.L23:
	.loc 1 210 0
	add	r0, r4, #154
	mov	r2, #8
	bl	memcpy
.LVL22:
	.loc 1 211 0
	ldr	r3, [r4, #0]
	ldr	r3, [r3, #428]
	mov	r0, r4
	blx	r3
	.loc 1 212 0
	ldmfd	sp!, {r4, pc}
	.cfi_endproc
.LFE13:
	.fnend
	.size	NGOnsSpImg_Property_SetText1ChGeometry, .-NGOnsSpImg_Property_SetText1ChGeometry
	.align	2
	.global	NGOnsSpImg_Property_ImageEn
	.type	NGOnsSpImg_Property_ImageEn, %function
NGOnsSpImg_Property_ImageEn:
	.fnstart
.LFB12:
	.loc 1 195 0
	.cfi_startproc
	@ args = 0, pretend = 0, frame = 0
	@ frame_needed = 0, uses_anonymous_args = 0
.LVL23:
	stmfd	sp!, {r3, lr}
	.save {r3, lr}
.LCFI5:
	.cfi_def_cfa_offset 8
	.loc 1 196 0
	cmp	r0, #0
	bne	.L27
	.cfi_offset 14, -4
	.cfi_offset 3, -8
	mov	r0, #0
.LVL24:
	movw	r1, #:lower16:.LC0
	movt	r1, #:upper16:.LC0
	movw	r2, #:lower16:.LC1
	movt	r2, #:upper16:.LC1
	mov	r3, #196
	bl	DumpCallTrace
	bl	SysdItronCrashDumpReq
.L28:
	b	.L28
.LVL25:
.L27:
	.loc 1 201 0
	add	r0, r0, #144
.LVL26:
	ldmfd	sp!, {r3, pc}
	.cfi_endproc
.LFE12:
	.fnend
	.size	NGOnsSpImg_Property_ImageEn, .-NGOnsSpImg_Property_ImageEn
	.align	2
	.global	NGOnsSpImg_Property_SetImageEn
	.type	NGOnsSpImg_Property_SetImageEn, %function
NGOnsSpImg_Property_SetImageEn:
	.fnstart
.LFB11:
	.loc 1 185 0
	.cfi_startproc
	@ args = 0, pretend = 0, frame = 0
	@ frame_needed = 0, uses_anonymous_args = 0
.LVL27:
	stmfd	sp!, {r3, lr}
	.save {r3, lr}
.LCFI6:
	.cfi_def_cfa_offset 8
	mov	r2, r1
	.loc 1 186 0
	cmp	r0, #0
	bne	.L31
	.cfi_offset 14, -4
	.cfi_offset 3, -8
.LVL28:
	mov	r0, #0
.LVL29:
	movw	r1, #:lower16:.LC0
	movt	r1, #:upper16:.LC0
	movw	r2, #:lower16:.LC1
.LVL30:
	movt	r2, #:upper16:.LC1
	mov	r3, #186
	bl	DumpCallTrace
	bl	SysdItronCrashDumpReq
.L32:
	b	.L32
.LVL31:
.L31:
	.loc 1 187 0
	cmp	r1, #0
	bne	.L33
.LVL32:
	mov	r0, #0
.LVL33:
	movw	r1, #:lower16:.LC0
.LVL34:
	movt	r1, #:upper16:.LC0
	movw	r2, #:lower16:.LC1
.LVL35:
	movt	r2, #:upper16:.LC1
	mov	r3, #187
	bl	DumpCallTrace
	bl	SysdItronCrashDumpReq
.L34:
	b	.L34
.LVL36:
.L33:
	.loc 1 191 0
	ldr	r3, [r0, #0]
	ldr	r3, [r3, #424]
	mov	r1, #0
.LVL37:
	ldr	r2, [r2, #0]
.LVL38:
	blx	r3
.LVL39:
	.loc 1 192 0
	ldmfd	sp!, {r3, pc}
	.cfi_endproc
.LFE11:
	.fnend
	.size	NGOnsSpImg_Property_SetImageEn, .-NGOnsSpImg_Property_SetImageEn
	.align	2
	.global	NGOnsSpImg_Property_ImageCn
	.type	NGOnsSpImg_Property_ImageCn, %function
NGOnsSpImg_Property_ImageCn:
	.fnstart
.LFB10:
	.loc 1 176 0
	.cfi_startproc
	@ args = 0, pretend = 0, frame = 0
	@ frame_needed = 0, uses_anonymous_args = 0
.LVL40:
	stmfd	sp!, {r3, lr}
	.save {r3, lr}
.LCFI7:
	.cfi_def_cfa_offset 8
	.loc 1 177 0
	cmp	r0, #0
	bne	.L37
	.cfi_offset 14, -4
	.cfi_offset 3, -8
	mov	r0, #0
.LVL41:
	movw	r1, #:lower16:.LC0
	movt	r1, #:upper16:.LC0
	movw	r2, #:lower16:.LC1
	movt	r2, #:upper16:.LC1
	mov	r3, #177
	bl	DumpCallTrace
	bl	SysdItronCrashDumpReq
.L38:
	b	.L38
.LVL42:
.L37:
	.loc 1 182 0
	add	r0, r0, #148
.LVL43:
	ldmfd	sp!, {r3, pc}
	.cfi_endproc
.LFE10:
	.fnend
	.size	NGOnsSpImg_Property_ImageCn, .-NGOnsSpImg_Property_ImageCn
	.align	2
	.global	NGOnsSpImg_Property_SetImageCn
	.type	NGOnsSpImg_Property_SetImageCn, %function
NGOnsSpImg_Property_SetImageCn:
	.fnstart
.LFB9:
	.loc 1 166 0
	.cfi_startproc
	@ args = 0, pretend = 0, frame = 0
	@ frame_needed = 0, uses_anonymous_args = 0
.LVL44:
	stmfd	sp!, {r3, lr}
	.save {r3, lr}
.LCFI8:
	.cfi_def_cfa_offset 8
	mov	r2, r1
	.loc 1 167 0
	cmp	r0, #0
	bne	.L41
	.cfi_offset 14, -4
	.cfi_offset 3, -8
.LVL45:
	mov	r0, #0
.LVL46:
	movw	r1, #:lower16:.LC0
	movt	r1, #:upper16:.LC0
	movw	r2, #:lower16:.LC1
.LVL47:
	movt	r2, #:upper16:.LC1
	mov	r3, #167
	bl	DumpCallTrace
	bl	SysdItronCrashDumpReq
.L42:
	b	.L42
.LVL48:
.L41:
	.loc 1 168 0
	cmp	r1, #0
	bne	.L43
.LVL49:
	mov	r0, #0
.LVL50:
	movw	r1, #:lower16:.LC0
.LVL51:
	movt	r1, #:upper16:.LC0
	movw	r2, #:lower16:.LC1
.LVL52:
	movt	r2, #:upper16:.LC1
	mov	r3, #168
	bl	DumpCallTrace
	bl	SysdItronCrashDumpReq
.L44:
	b	.L44
.LVL53:
.L43:
	.loc 1 172 0
	ldr	r3, [r0, #0]
	ldr	r3, [r3, #424]
	mov	r1, #1
.LVL54:
	ldr	r2, [r2, #0]
.LVL55:
	blx	r3
.LVL56:
	.loc 1 173 0
	ldmfd	sp!, {r3, pc}
	.cfi_endproc
.LFE9:
	.fnend
	.size	NGOnsSpImg_Property_SetImageCn, .-NGOnsSpImg_Property_SetImageCn
	.align	2
	.global	NGOnsSpImg_Property_BGImage
	.type	NGOnsSpImg_Property_BGImage, %function
NGOnsSpImg_Property_BGImage:
	.fnstart
.LFB8:
	.loc 1 157 0
	.cfi_startproc
	@ args = 0, pretend = 0, frame = 0
	@ frame_needed = 0, uses_anonymous_args = 0
.LVL57:
	stmfd	sp!, {r3, lr}
	.save {r3, lr}
.LCFI9:
	.cfi_def_cfa_offset 8
	.loc 1 158 0
	cmp	r0, #0
	bne	.L47
	.cfi_offset 14, -4
	.cfi_offset 3, -8
	mov	r0, #0
.LVL58:
	movw	r1, #:lower16:.LC0
	movt	r1, #:upper16:.LC0
	movw	r2, #:lower16:.LC1
	movt	r2, #:upper16:.LC1
	mov	r3, #158
	bl	DumpCallTrace
	bl	SysdItronCrashDumpReq
.L48:
	b	.L48
.LVL59:
.L47:
	ldr	r0, [r0, #132]
.LVL60:
	.loc 1 163 0
	add	r0, r0, #124
	ldmfd	sp!, {r3, pc}
	.cfi_endproc
.LFE8:
	.fnend
	.size	NGOnsSpImg_Property_BGImage, .-NGOnsSpImg_Property_BGImage
	.align	2
	.global	NGOnsSpImg_Property_SetBGImage
	.type	NGOnsSpImg_Property_SetBGImage, %function
NGOnsSpImg_Property_SetBGImage:
	.fnstart
.LFB7:
	.loc 1 147 0
	.cfi_startproc
	@ args = 0, pretend = 0, frame = 0
	@ frame_needed = 0, uses_anonymous_args = 0
.LVL61:
	stmfd	sp!, {r3, lr}
	.save {r3, lr}
.LCFI10:
	.cfi_def_cfa_offset 8
	.loc 1 148 0
	cmp	r0, #0
	bne	.L51
	.cfi_offset 14, -4
	.cfi_offset 3, -8
	mov	r0, #0
.LVL62:
	movw	r1, #:lower16:.LC0
.LVL63:
	movt	r1, #:upper16:.LC0
	movw	r2, #:lower16:.LC1
	movt	r2, #:upper16:.LC1
	mov	r3, #148
	bl	DumpCallTrace
	bl	SysdItronCrashDumpReq
.L52:
	b	.L52
.LVL64:
.L51:
	.loc 1 149 0
	cmp	r1, #0
	bne	.L53
	mov	r0, #0
.LVL65:
	movw	r1, #:lower16:.LC0
.LVL66:
	movt	r1, #:upper16:.LC0
	movw	r2, #:lower16:.LC1
	movt	r2, #:upper16:.LC1
	mov	r3, #149
	bl	DumpCallTrace
	bl	SysdItronCrashDumpReq
.L54:
	b	.L54
.LVL67:
.L53:
	.loc 1 153 0
	ldr	r3, [r0, #0]
	ldr	r3, [r3, #420]
	ldr	r1, [r1, #0]
.LVL68:
	blx	r3
.LVL69:
	.loc 1 154 0
	ldmfd	sp!, {r3, pc}
	.cfi_endproc
.LFE7:
	.fnend
	.size	NGOnsSpImg_Property_SetBGImage, .-NGOnsSpImg_Property_SetBGImage
	.align	2
	.global	NGOnsSpImg_OnLaunguageChanged
	.type	NGOnsSpImg_OnLaunguageChanged, %function
NGOnsSpImg_OnLaunguageChanged:
	.fnstart
.LFB2:
	.loc 1 48 0
	.cfi_startproc
	@ args = 0, pretend = 0, frame = 0
	@ frame_needed = 0, uses_anonymous_args = 0
.LVL70:
	stmfd	sp!, {r3, lr}
	.save {r3, lr}
.LCFI11:
	.cfi_def_cfa_offset 8
	.loc 1 49 0
	cmp	r0, #0
	bne	.L57
	.cfi_offset 14, -4
	.cfi_offset 3, -8
	mov	r0, #0
.LVL71:
	movw	r1, #:lower16:.LC0
.LVL72:
	movt	r1, #:upper16:.LC0
	movw	r2, #:lower16:.LC1
	movt	r2, #:upper16:.LC1
	mov	r3, #49
	bl	DumpCallTrace
	bl	SysdItronCrashDumpReq
.L58:
	b	.L58
.LVL73:
.L57:
	.loc 1 53 0
	strb	r1, [r0, #152]
	.loc 1 54 0
	ldr	r3, [r0, #0]
	ldr	r3, [r3, #428]
	blx	r3
.LVL74:
	.loc 1 57 0
	mov	r0, #0
	ldmfd	sp!, {r3, pc}
	.cfi_endproc
.LFE2:
	.fnend
	.size	NGOnsSpImg_OnLaunguageChanged, .-NGOnsSpImg_OnLaunguageChanged
	.align	2
	.type	NGOnsSpImg_ClassInit, %function
NGOnsSpImg_ClassInit:
	.fnstart
.LFB17:
	.loc 1 245 0
	.cfi_startproc
	@ args = 0, pretend = 0, frame = 0
	@ frame_needed = 0, uses_anonymous_args = 0
.LVL75:
	stmfd	sp!, {r4, lr}
	.save {r4, lr}
.LCFI12:
	.cfi_def_cfa_offset 8
	.pad #8
	sub	sp, sp, #8
.LCFI13:
	.cfi_def_cfa_offset 16
	.loc 1 246 0
	subs	r4, r0, #0
	.cfi_offset 14, -4
	.cfi_offset 4, -8
	bne	.L61
.LVL76:
	movw	r1, #:lower16:.LC0
	movt	r1, #:upper16:.LC0
	movw	r2, #:lower16:.LC1
	movt	r2, #:upper16:.LC1
	mov	r3, #246
	bl	DumpCallTrace
	bl	SysdItronCrashDumpReq
.L62:
	b	.L62
.LVL77:
.L61:
	.loc 1 249 0
	bl	NGImgResID_GetType
	mov	r2, r0
	ldrb	r3, [r4, #412]	@ zero_extendqisi2
	movw	r1, #:lower16:NGOnsSpImg_Property_BGImage
	movt	r1, #:upper16:NGOnsSpImg_Property_BGImage
	str	r1, [sp, #0]
	movw	r1, #:lower16:NGOnsSpImg_Property_SetBGImage
	movt	r1, #:upper16:NGOnsSpImg_Property_SetBGImage
	str	r1, [sp, #4]
	mov	r0, r4
	movw	r1, #:lower16:.LC2
	movt	r1, #:upper16:.LC2
	bl	NGObject_AddProperty
	strb	r0, [r4, #412]
	.loc 1 250 0
	bl	NGImgResID_GetType
	mov	r2, r0
	ldrb	r3, [r4, #413]	@ zero_extendqisi2
	movw	r1, #:lower16:NGOnsSpImg_Property_ImageCn
	movt	r1, #:upper16:NGOnsSpImg_Property_ImageCn
	str	r1, [sp, #0]
	movw	r1, #:lower16:NGOnsSpImg_Property_SetImageCn
	movt	r1, #:upper16:NGOnsSpImg_Property_SetImageCn
	str	r1, [sp, #4]
	mov	r0, r4
	movw	r1, #:lower16:.LC3
	movt	r1, #:upper16:.LC3
	bl	NGObject_AddProperty
	strb	r0, [r4, #413]
	.loc 1 251 0
	bl	NGImgResID_GetType
	mov	r2, r0
	ldrb	r3, [r4, #414]	@ zero_extendqisi2
	movw	r1, #:lower16:NGOnsSpImg_Property_ImageEn
	movt	r1, #:upper16:NGOnsSpImg_Property_ImageEn
	str	r1, [sp, #0]
	movw	r1, #:lower16:NGOnsSpImg_Property_SetImageEn
	movt	r1, #:upper16:NGOnsSpImg_Property_SetImageEn
	str	r1, [sp, #4]
	mov	r0, r4
	movw	r1, #:lower16:.LC4
	movt	r1, #:upper16:.LC4
	bl	NGObject_AddProperty
	strb	r0, [r4, #414]
	.loc 1 253 0
	bl	NGRect_GetType
	mov	r2, r0
	ldrb	r3, [r4, #415]	@ zero_extendqisi2
	movw	r1, #:lower16:NGOnsSpImg_Property_Text1ChGeometry
	movt	r1, #:upper16:NGOnsSpImg_Property_Text1ChGeometry
	str	r1, [sp, #0]
	movw	r1, #:lower16:NGOnsSpImg_Property_SetText1ChGeometry
	movt	r1, #:upper16:NGOnsSpImg_Property_SetText1ChGeometry
	str	r1, [sp, #4]
	mov	r0, r4
	movw	r1, #:lower16:.LC5
	movt	r1, #:upper16:.LC5
	bl	NGObject_AddProperty
	strb	r0, [r4, #415]
	.loc 1 255 0
	bl	NGRect_GetType
	mov	r2, r0
	ldrb	r3, [r4, #416]	@ zero_extendqisi2
	movw	r1, #:lower16:NGOnsSpImg_Property_Text1EnGeometry
	movt	r1, #:upper16:NGOnsSpImg_Property_Text1EnGeometry
	str	r1, [sp, #0]
	movw	r1, #:lower16:NGOnsSpImg_Property_SetText1EnGeometry
	movt	r1, #:upper16:NGOnsSpImg_Property_SetText1EnGeometry
	str	r1, [sp, #4]
	mov	r0, r4
	movw	r1, #:lower16:.LC6
	movt	r1, #:upper16:.LC6
	bl	NGObject_AddProperty
	strb	r0, [r4, #416]
	.loc 1 258 0
	movw	r3, #:lower16:NGOnsSpImg_SetBGImage
	movt	r3, #:upper16:NGOnsSpImg_SetBGImage
	str	r3, [r4, #420]
	.loc 1 259 0
	movw	r3, #:lower16:NGOnsSpImg_SetDisplayImage
	movt	r3, #:upper16:NGOnsSpImg_SetDisplayImage
	str	r3, [r4, #424]
	.loc 1 260 0
	movw	r3, #:lower16:NGOnsSpImg_OnLaunguageChanged
	movt	r3, #:upper16:NGOnsSpImg_OnLaunguageChanged
	str	r3, [r4, #292]
	.loc 1 261 0
	movw	r3, #:lower16:NGOnsSpImg_LanguageAction
	movt	r3, #:upper16:NGOnsSpImg_LanguageAction
	str	r3, [r4, #428]
	.loc 1 262 0
	add	sp, sp, #8
	ldmfd	sp!, {r4, pc}
	.cfi_endproc
.LFE17:
	.fnend
	.size	NGOnsSpImg_ClassInit, .-NGOnsSpImg_ClassInit
	.align	2
	.type	NGOnsSpImg_UpdateImage, %function
NGOnsSpImg_UpdateImage:
	.fnstart
.LFB5:
	.loc 1 102 0
	.cfi_startproc
	@ args = 0, pretend = 0, frame = 8
	@ frame_needed = 0, uses_anonymous_args = 0
.LVL78:
	stmfd	sp!, {r4, r5, r6, lr}
	.save {r4, r5, r6, lr}
.LCFI14:
	.cfi_def_cfa_offset 16
	.pad #8
	sub	sp, sp, #8
.LCFI15:
	.cfi_def_cfa_offset 24
	.loc 1 103 0
	subs	r4, r0, #0
	.cfi_offset 14, -4
	.cfi_offset 6, -8
	.cfi_offset 5, -12
	.cfi_offset 4, -16
	bne	.L65
.LVL79:
	movw	r1, #:lower16:.LC0
	movt	r1, #:upper16:.LC0
	movw	r2, #:lower16:.LC1
	movt	r2, #:upper16:.LC1
	mov	r3, #103
	bl	DumpCallTrace
	bl	SysdItronCrashDumpReq
.L66:
	b	.L66
.LVL80:
.L65:
	.loc 1 105 0
	ldrsb	r3, [r4, #152]
	add	r3, r3, #36
	ldr	r3, [r4, r3, asl #2]
	cmn	r3, #1
	beq	.L69
.LBB2:
	.loc 1 106 0
	bl	NGCoreApp_Inst
	.loc 1 107 0
	ldr	r3, [r0, #0]
	ldr	r3, [r3, #88]
	blx	r3
	.loc 1 108 0
	ldr	r3, [r0, #0]
	ldrsb	r2, [r4, #152]
	add	r2, r2, #36
	ldr	r3, [r3, #68]
	ldr	r1, [r4, r2, asl #2]
	blx	r3
	.loc 1 109 0
	mov	r3, #0
	str	r3, [sp, #0]
	str	r3, [sp, #4]
	.loc 1 110 0
	ldrh	r5, [r0, #52]
.LVL81:
	.loc 1 111 0
	ldrh	r6, [r0, #56]
	.loc 1 112 0
	ldr	r0, [r4, #136]
.LVL82:
	ldr	r3, [r0, #0]
	ldr	r3, [r3, #132]
	strh	r5, [sp, #4]	@ movhi
	strh	r6, [sp, #6]	@ movhi
	mov	r2, sp
	ldmia	r2, {r1, r2}
	blx	r3
	.loc 1 114 0
	ldr	r0, [r4, #132]
	ldr	r3, [r0, #0]
	ldr	r3, [r3, #400]
	blx	r3
	cmn	r0, #1
	bne	.L68
	.loc 1 115 0
	sxth	r3, r5
	rsb	r3, r3, #800
	add	r3, r3, r3, lsr #31
	mov	r3, r3, asr #1
	strh	r3, [sp, #0]	@ movhi
	.loc 1 116 0
	sxth	r3, r6
	rsb	r3, r3, #480
	add	r3, r3, r3, lsr #31
	mov	r3, r3, asr #1
	strh	r3, [sp, #2]	@ movhi
	.loc 1 117 0
	ldr	r3, [r4, #136]
	ldr	r3, [r3, #0]
	ldr	r3, [r3, #132]
	strh	r5, [sp, #4]	@ movhi
	strh	r6, [sp, #6]	@ movhi
	mov	r0, r4
	mov	r2, sp
	ldmia	r2, {r1, r2}
	blx	r3
.L68:
	.loc 1 120 0
	ldr	r0, [r4, #136]
	ldr	r3, [r0, #0]
	ldrsb	r2, [r4, #152]
	add	r2, r2, #36
	ldr	r3, [r3, #404]
	ldr	r1, [r4, r2, asl #2]
	blx	r3
.LVL83:
.L69:
.LBE2:
	.loc 1 122 0
	add	sp, sp, #8
	ldmfd	sp!, {r4, r5, r6, pc}
	.cfi_endproc
.LFE5:
	.fnend
	.size	NGOnsSpImg_UpdateImage, .-NGOnsSpImg_UpdateImage
	.align	2
	.type	NGOnsSpImg_LanguageAction, %function
NGOnsSpImg_LanguageAction:
	.fnstart
.LFB6:
	.loc 1 125 0
	.cfi_startproc
	@ args = 0, pretend = 0, frame = 0
	@ frame_needed = 0, uses_anonymous_args = 0
.LVL84:
	stmfd	sp!, {r4, lr}
	.save {r4, lr}
.LCFI16:
	.cfi_def_cfa_offset 8
	.loc 1 126 0
	cmp	r0, #0
	bne	.L71
	.cfi_offset 14, -4
	.cfi_offset 4, -8
	mov	r0, #0
.LVL85:
	movw	r1, #:lower16:.LC0
	movt	r1, #:upper16:.LC0
	movw	r2, #:lower16:.LC1
	movt	r2, #:upper16:.LC1
	mov	r3, #126
	bl	DumpCallTrace
	bl	SysdItronCrashDumpReq
.L72:
	b	.L72
.LVL86:
.L71:
	.loc 1 128 0
	mov	r4, r0
.LVL87:
	.loc 1 130 0
	bl	NGOnsSpImg_UpdateImage
.LVL88:
	.loc 1 132 0
	bl	NG_GetLanguage
	strb	r0, [r4, #152]
	.loc 1 134 0
	sxtb	r3, r0
	cmp	r3, #1
	bne	.L73
	.loc 1 135 0
	ldr	r0, [r4, #140]
	ldr	r3, [r0, #0]
	ldrh	r1, [r4, #154]
	ldrh	lr, [r4, #156]
	ldrh	r2, [r4, #158]
	ldrh	ip, [r4, #160]
	ldr	r3, [r3, #132]
	orr	r1, r1, lr, asl #16
	orr	r2, r2, ip, asl #16
	blx	r3
	ldmfd	sp!, {r4, pc}
.L73:
	.loc 1 137 0
	cmp	r0, #0
	ldmnefd	sp!, {r4, pc}
	.loc 1 138 0
	ldr	r0, [r4, #140]
	ldr	r3, [r0, #0]
	ldrh	r1, [r4, #162]
	ldrh	lr, [r4, #164]
	ldrh	r2, [r4, #166]
	ldrh	ip, [r4, #168]
	ldr	r3, [r3, #132]
	orr	r1, r1, lr, asl #16
	orr	r2, r2, ip, asl #16
	blx	r3
	ldmfd	sp!, {r4, pc}
	.cfi_endproc
.LFE6:
	.fnend
	.size	NGOnsSpImg_LanguageAction, .-NGOnsSpImg_LanguageAction
	.align	2
	.global	NGOnsSpImg_SetBGImage
	.type	NGOnsSpImg_SetBGImage, %function
NGOnsSpImg_SetBGImage:
	.fnstart
.LFB4:
	.loc 1 72 0
	.cfi_startproc
	@ args = 0, pretend = 0, frame = 8
	@ frame_needed = 0, uses_anonymous_args = 0
.LVL89:
	stmfd	sp!, {r4, r5, r6, r7, r8, lr}
	.save {r4, r5, r6, r7, r8, lr}
.LCFI17:
	.cfi_def_cfa_offset 24
	.pad #8
	sub	sp, sp, #8
.LCFI18:
	.cfi_def_cfa_offset 32
	mov	r5, r1
	.cfi_offset 14, -4
	.cfi_offset 8, -8
	.cfi_offset 7, -12
	.cfi_offset 6, -16
	.cfi_offset 5, -20
	.cfi_offset 4, -24
	.loc 1 73 0
	subs	r4, r0, #0
	bne	.L77
.LVL90:
	movw	r1, #:lower16:.LC0
	movt	r1, #:upper16:.LC0
	movw	r2, #:lower16:.LC1
	movt	r2, #:upper16:.LC1
	mov	r3, #73
	bl	DumpCallTrace
	bl	SysdItronCrashDumpReq
.L78:
	b	.L78
.LVL91:
.L77:
	.loc 1 75 0
	cmn	r1, #1
	bne	.L79
.LVL92:
	.loc 1 76 0
	ldr	r0, [r4, #132]
	ldr	r3, [r0, #0]
	ldr	r3, [r3, #404]
	mvn	r1, #0
.LVL93:
	blx	r3
	.loc 1 77 0
	ldr	r3, [r4, #0]
	mov	r0, r4
	ldrb	r1, [r3, #412]	@ zero_extendqisi2
	bl	NGObject_PropertyChanged
	.loc 1 78 0
	b	.L81
.LVL94:
.L79:
	.loc 1 81 0
	bl	NGCoreApp_Inst
.LVL95:
	.loc 1 82 0
	ldr	r3, [r0, #0]
	ldr	r3, [r3, #88]
	blx	r3
	.loc 1 83 0
	ldr	r3, [r0, #0]
	ldr	r3, [r3, #68]
	mov	r1, r5
	blx	r3
	.loc 1 86 0
	ldrh	r7, [r0, #52]
.LVL96:
	.loc 1 87 0
	ldrh	r6, [r0, #56]
	.loc 1 91 0
	ldr	r3, [r4, #0]
	ldr	r3, [r3, #132]
	sxth	r2, r6
	rsb	r2, r2, #480
	add	r2, r2, r2, lsr #31
	mov	r2, r2, asr #1
	strh	r2, [sp, #2]	@ movhi
	sxth	r2, r7
	rsb	r2, r2, #800
	add	r2, r2, r2, lsr #31
	mov	r2, r2, asr #1
	strh	r2, [sp, #0]	@ movhi
	strh	r6, [sp, #6]	@ movhi
	strh	r7, [sp, #4]	@ movhi
	mov	r0, r4
.LVL97:
	mov	r8, sp
	ldmia	r8, {r1, r2}
	blx	r3
	.loc 1 92 0
	ldr	r0, [r4, #132]
	ldr	r3, [r0, #0]
	ldr	r3, [r3, #404]
	mov	r1, r5
	blx	r3
	.loc 1 93 0
	ldr	r3, [r4, #0]
	mov	r0, r4
	ldrb	r1, [r3, #412]	@ zero_extendqisi2
	bl	NGObject_PropertyChanged
	.loc 1 97 0
	ldr	r0, [r4, #132]
	ldr	r3, [r0, #0]
	ldr	r3, [r3, #132]
	mov	r2, #0
	strh	r2, [sp, #2]	@ movhi
	strh	r2, [sp, #0]	@ movhi
	strh	r6, [sp, #6]	@ movhi
	strh	r7, [sp, #4]	@ movhi
	ldmia	r8, {r1, r2}
	blx	r3
.L81:
	.loc 1 98 0
	add	sp, sp, #8
	ldmfd	sp!, {r4, r5, r6, r7, r8, pc}
	.cfi_endproc
.LFE4:
	.fnend
	.size	NGOnsSpImg_SetBGImage, .-NGOnsSpImg_SetBGImage
	.align	2
	.global	NGOnsSpImg_SetDisplayImage
	.type	NGOnsSpImg_SetDisplayImage, %function
NGOnsSpImg_SetDisplayImage:
	.fnstart
.LFB3:
	.loc 1 61 0
	.cfi_startproc
	@ args = 0, pretend = 0, frame = 0
	@ frame_needed = 0, uses_anonymous_args = 0
.LVL98:
	stmfd	sp!, {r4, lr}
	.save {r4, lr}
.LCFI19:
	.cfi_def_cfa_offset 8
	.loc 1 62 0
	subs	r4, r0, #0
	.cfi_offset 14, -4
	.cfi_offset 4, -8
	bne	.L83
.LVL99:
	movw	r1, #:lower16:.LC0
.LVL100:
	movt	r1, #:upper16:.LC0
	movw	r2, #:lower16:.LC1
.LVL101:
	movt	r2, #:upper16:.LC1
	mov	r3, #62
	bl	DumpCallTrace
	bl	SysdItronCrashDumpReq
.L84:
	b	.L84
.LVL102:
.L83:
	.loc 1 64 0
	add	r1, r1, #36
.LVL103:
	str	r2, [r4, r1, asl #2]
	.loc 1 65 0
	mov	r0, r4
	bl	NGOnsSpImg_UpdateImage
.LVL104:
	.loc 1 67 0
	ldr	r3, [r4, #0]
	mov	r0, r4
	ldrb	r1, [r3, #413]	@ zero_extendqisi2
	bl	NGObject_PropertyChanged
	.loc 1 68 0
	ldr	r3, [r4, #0]
	mov	r0, r4
	ldrb	r1, [r3, #414]	@ zero_extendqisi2
	bl	NGObject_PropertyChanged
	.loc 1 69 0
	ldmfd	sp!, {r4, pc}
	.cfi_endproc
.LFE3:
	.fnend
	.size	NGOnsSpImg_SetDisplayImage, .-NGOnsSpImg_SetDisplayImage
	.align	2
	.global	NGOnsSpImg_Dtor
	.type	NGOnsSpImg_Dtor, %function
NGOnsSpImg_Dtor:
	.fnstart
.LFB1:
	.loc 1 38 0
	.cfi_startproc
	@ args = 0, pretend = 0, frame = 0
	@ frame_needed = 0, uses_anonymous_args = 0
.LVL105:
	stmfd	sp!, {r4, lr}
	.save {r4, lr}
.LCFI20:
	.cfi_def_cfa_offset 8
	.loc 1 39 0
	subs	r4, r0, #0
	.cfi_offset 14, -4
	.cfi_offset 4, -8
	bne	.L87
.LVL106:
	movw	r1, #:lower16:.LC0
	movt	r1, #:upper16:.LC0
	movw	r2, #:lower16:.LC1
	movt	r2, #:upper16:.LC1
	mov	r3, #39
	bl	DumpCallTrace
	bl	SysdItronCrashDumpReq
.L88:
	b	.L88
.LVL107:
.L87:
	.loc 1 42 0
	ldr	r0, [r4, #132]
	bl	NGObject_Destroy
	.loc 1 43 0
	ldr	r0, [r4, #136]
	bl	NGObject_Destroy
	.loc 1 44 0
	ldr	r0, [r4, #140]
	bl	NGObject_Destroy
	.loc 1 45 0
	ldmfd	sp!, {r4, pc}
	.cfi_endproc
.LFE1:
	.fnend
	.size	NGOnsSpImg_Dtor, .-NGOnsSpImg_Dtor
	.align	2
	.global	NGOnsSpImg_Ctor
	.type	NGOnsSpImg_Ctor, %function
NGOnsSpImg_Ctor:
	.fnstart
.LFB0:
	.loc 1 18 0
	.cfi_startproc
	@ args = 0, pretend = 0, frame = 88
	@ frame_needed = 0, uses_anonymous_args = 0
.LVL108:
	stmfd	sp!, {r4, r5, r6, lr}
	.save {r4, r5, r6, lr}
.LCFI21:
	.cfi_def_cfa_offset 16
	.pad #160
	sub	sp, sp, #160
.LCFI22:
	.cfi_def_cfa_offset 176
	mov	r4, r1
	.cfi_offset 14, -4
	.cfi_offset 6, -8
	.cfi_offset 5, -12
	.cfi_offset 4, -16
	.loc 1 19 0
	subs	r5, r0, #0
	bne	.L91
.LVL109:
	movw	r1, #:lower16:.LC0
	movt	r1, #:upper16:.LC0
	movw	r2, #:lower16:.LC1
	movt	r2, #:upper16:.LC1
	mov	r3, #19
	bl	DumpCallTrace
	bl	SysdItronCrashDumpReq
.L92:
	b	.L92
.LVL110:
.L91:
.LBB3:
	.loc 1 22 0
	bl	NGOnsSpImg_GetType
	bl	NGObject_Class
	cmp	r0, #0
.LVL111:
	bne	.L93
	mov	r0, #0
.LVL112:
	movw	r1, #:lower16:.LC0
	movt	r1, #:upper16:.LC0
	movw	r2, #:lower16:.LC1
	movt	r2, #:upper16:.LC1
	mov	r3, #22
	bl	DumpCallTrace
	bl	SysdItronCrashDumpReq
.L94:
	b	.L94
.LVL113:
.L93:
	ldr	r3, [r0, #20]
.LVL114:
	cmp	r3, #0
	bne	.L95
	mov	r0, #0
.LVL115:
	movw	r1, #:lower16:.LC0
	movt	r1, #:upper16:.LC0
	movw	r2, #:lower16:.LC1
	movt	r2, #:upper16:.LC1
	add	r3, r3, #22
.LVL116:
	bl	DumpCallTrace
	bl	SysdItronCrashDumpReq
.L96:
	b	.L96
.LVL117:
.L95:
	ldr	r3, [r3, #0]
.LVL118:
	cmp	r3, #0
	beq	.L97
	mov	r0, r5
.LVL119:
	mov	r1, r4
	blx	r3
.LVL120:
.L97:
.LBE3:
	.loc 1 24 0
	bl	NGLabel_GetType
.LVL121:
	mov	r1, r5
	bl	NGObject_Create
	str	r0, [r5, #132]
	.loc 1 25 0
	bl	NGLabel_GetType
	mov	r1, r5
	bl	NGObject_Create
	str	r0, [r5, #136]
	.loc 1 26 0
	bl	NGLabel_GetType
	mov	r1, r5
	bl	NGObject_Create
	str	r0, [r5, #140]
	.loc 1 27 0
	bl	NG_GetLanguage
	strb	r0, [r5, #152]
	.loc 1 30 0
	ldr	r1, [r5, #140]
	add	r4, sp, #76
.LVL122:
	ldr	r3, [r1, #0]
	ldr	r3, [r3, #392]
	mov	r0, r4
	blx	r3
	.loc 1 31 0
	mov	r3, #2
	strb	r3, [sp, #96]
	.loc 1 32 0
	add	r3, r3, #30
	strb	r3, [sp, #104]
	.loc 1 34 0
	ldr	r6, [r5, #140]
	ldr	r5, [r6, #0]
.LVL123:
	mov	r0, sp
	add	r1, sp, #88
	mov	r2, #72
	bl	memcpy
	ldmia	r4, {r1, r2, r3}
	ldr	ip, [r5, #396]
	mov	r0, r6
	blx	ip
	.loc 1 35 0
	add	sp, sp, #160
	ldmfd	sp!, {r4, r5, r6, pc}
	.cfi_endproc
.LFE0:
	.fnend
	.size	NGOnsSpImg_Ctor, .-NGOnsSpImg_Ctor
	.data
	.align	2
	.set	.LANCHOR1,. + 0
	.type	NGOnsSpImgInfo, %object
	.size	NGOnsSpImgInfo, 48
NGOnsSpImgInfo:
	.ascii	"NGOnsSpImg\000"
	.space	21
	.short	172
	.short	432
	.word	NGOnsSpImg_BaseClassInit
	.word	NGOnsSpImg_ClassInit
	.word	0
	.section	.rodata.str1.4,"aMS",%progbits,1
	.align	2
.LC0:
	.ascii	"In file %s line %d\012\000"
.LC1:
	.ascii	"NGOnsSpImg.c\000"
	.space	3
.LC2:
	.ascii	"BackGround\000"
	.space	1
.LC3:
	.ascii	"ImageCn\000"
.LC4:
	.ascii	"ImageEn\000"
.LC5:
	.ascii	"Text1ChGeometry\000"
.LC6:
	.ascii	"Text1EnGeometry\000"
	.bss
	.align	1
	.set	.LANCHOR0,. + 0
	.type	type.9075, %object
	.size	type.9075, 2
type.9075:
	.space	2
	.text
.Letext0: