	.cpu cortex-a9
	.eabi_attribute 27, 3
	.fpu neon
	.eabi_attribute 20, 1
	.eabi_attribute 21, 1
	.eabi_attribute 23, 3
	.eabi_attribute 24, 1
	.eabi_attribute 25, 1
	.eabi_attribute 26, 1
	.eabi_attribute 30, 1
	.eabi_attribute 18, 4
	.file	"png_api.c"
	.text
.Ltext0:
	.cfi_sections	.debug_frame
	.global	__aeabi_idiv
	.global	__aeabi_uidiv
	.align	2
	.global	fpt_convert
	.type	fpt_convert, %function
fpt_convert:
	.fnstart
.LFB0:
	.file 1 "png_api.c"
	.loc 1 41 0
	.cfi_startproc
	@ args = 24, pretend = 0, frame = 56
	@ frame_needed = 0, uses_anonymous_args = 0
.LVL0:
	stmfd	sp!, {r4, r5, r6, r7, r8, r9, sl, fp, lr}
	.save {r4, r5, r6, r7, r8, r9, sl, fp, lr}
.LCFI0:
	.cfi_def_cfa_offset 36
	.pad #60
	sub	sp, sp, #60
.LCFI1:
	.cfi_def_cfa_offset 96
	str	r0, [sp, #4]
	mov	r9, r2
	.cfi_offset 14, -4
	.cfi_offset 11, -8
	.cfi_offset 10, -12
	.cfi_offset 9, -16
	.cfi_offset 8, -20
	.cfi_offset 7, -24
	.cfi_offset 6, -28
	.cfi_offset 5, -32
	.cfi_offset 4, -36
	ldr	r8, [sp, #112]
	ldrb	r2, [sp, #100]	@ zero_extendqisi2
.LVL1:
	ldrb	r7, [sp, #108]	@ zero_extendqisi2
.LVL2:
	.loc 1 53 0
	movw	r0, #:lower16:gdd_info
.LVL3:
	movt	r0, #:upper16:gdd_info
	add	r3, r3, #125
.LVL4:
	add	r0, r0, r3, asl #3
	ldrb	r3, [r0, #6]	@ zero_extendqisi2
.LVL5:
	.loc 1 55 0
	ldrh	ip, [r0, #4]
	ldrh	r0, [sp, #96]
	rsb	r0, r0, ip
	uxth	r0, r0
	str	r0, [sp, #32]
	.loc 1 57 0
	cmp	r3, #9
	bne	.L2
.LVL6:
	.loc 1 58 0
	orr	r0, r1, #134217728
	str	r0, [sp, #8]
.L2:
	.loc 1 61 0
	orr	r1, r1, #134217728
.LVL7:
	str	r1, [sp, #16]
	.loc 1 67 0
	ldr	r6, [sp, #4]
	ldr	r6, [r6, #44]
	str	r6, [sp, #20]
	.loc 1 70 0
	cmp	r2, #2
	bne	.L3
	.loc 1 72 0
	mov	ip, r7, lsr #3
.LVL8:
	.loc 1 73 0
	mov	r4, ip
	ldr	r8, [sp, #32]
.LVL9:
	mul	r2, r8, ip
.LVL10:
	ldr	sl, [sp, #104]
	cmp	r2, sl
	movcs	r2, sl
	uxth	r2, r2
.LVL11:
	.loc 1 76 0
	movw	r0, #:lower16:conf
	movt	r0, #:upper16:conf
	ldr	r0, [r0, #0]
	ldrb	r5, [r0, #3]	@ zero_extendqisi2
	cmp	r5, #1
	bne	.L4
.LVL12:
	.loc 1 78 0
	ldrh	r5, [r0, #10]
	mul	r5, r5, ip
.LVL13:
	cmp	r2, r5
	movge	r2, r5
.LVL14:
	uxth	r2, r2
.LVL15:
	.loc 1 79 0
	ldrh	r0, [r0, #6]
	mla	r9, r0, ip, r9
.LVL16:
.L4:
	.loc 1 82 0
	cmp	r7, #24
	bne	.L5
	.loc 1 83 0
	sub	r3, r3, #4
.LVL17:
	cmp	r3, #5
	ldrls	pc, [pc, r3, asl #2]
	b	.L6
.L11:
	.word	.L7
	.word	.L6
	.word	.L8
	.word	.L9
	.word	.L6
	.word	.L10
.L10:
	.loc 1 86 0
	cmp	r2, #0
	bne	.L12
	b	.L13
.L9:
	.loc 1 99 0
	cmp	r2, #0
	bne	.L14
	b	.L13
.L8:
	.loc 1 119 0
	cmp	r2, #0
	bne	.L15
	b	.L13
.L7:
	.loc 1 109 0
	cmp	r2, #0
	bne	.L16
	b	.L13
.L12:
	.loc 1 41 0
	mov	r3, ip
.LVL18:
	.loc 1 93 0
	mvn	r0, #0
	ldr	r1, [sp, #8]
.LVL19:
.L17:
	.loc 1 87 0
	ldrb	r4, [r9, #0]	@ zero_extendqisi2
.LVL20:
	strb	r4, [sp, #55]
.LVL21:
	.loc 1 88 0
	ldrb	r4, [r9, #1]	@ zero_extendqisi2
.LVL22:
	strb	r4, [sp, #54]
.LVL23:
	.loc 1 89 0
	ldrb	r4, [r9, #2]	@ zero_extendqisi2
.LVL24:
	strb	r4, [sp, #53]
	.loc 1 41 0
	add	r9, r9, #3
.LVL25:
	.loc 1 90 0
	ldrb	r4, [sp, #53]	@ zero_extendqisi2
.LVL26:
	strb	r4, [r1, #0]
	.loc 1 91 0
	ldrb	r4, [sp, #54]	@ zero_extendqisi2
.LVL27:
	strb	r4, [r1, #1]
	.loc 1 92 0
	ldrb	r4, [sp, #55]	@ zero_extendqisi2
.LVL28:
	strb	r4, [r1, #2]
	.loc 1 93 0
	strb	r0, [r1, #3]
	.loc 1 41 0
	add	r1, r1, #4
	add	r3, r3, ip
	uxth	r3, r3
	.loc 1 86 0
	rsb	r4, ip, r3
.LVL29:
	uxth	r4, r4
	cmp	r2, r4
	bhi	.L17
	b	.L13
.LVL30:
.L14:
	.loc 1 41 0
	mov	r0, ip
.LVL31:
	mov	r3, #0
.L18:
	.loc 1 100 0
	ldrb	r4, [r9, #0]	@ zero_extendqisi2
.LVL32:
	strb	r4, [sp, #55]
.LVL33:
	.loc 1 101 0
	ldrb	r4, [r9, #1]	@ zero_extendqisi2
.LVL34:
	strb	r4, [sp, #54]
.LVL35:
	.loc 1 102 0
	ldrb	r4, [r9, #2]	@ zero_extendqisi2
.LVL36:
	strb	r4, [sp, #53]
	.loc 1 41 0
	add	r9, r9, #3
.LVL37:
	.loc 1 104 0
	ldrb	r6, [sp, #55]	@ zero_extendqisi2
.LVL38:
	ldrb	r4, [sp, #54]	@ zero_extendqisi2
.LVL39:
	ldrb	r5, [sp, #53]	@ zero_extendqisi2
.LVL40:
	mov	r6, r6, lsr #3
.LVL41:
	mov	r4, r4, lsr #2
.LVL42:
	mov	r4, r4, asl #5
	orr	r4, r4, r6, asl #11
	orr	r4, r4, r5, lsr #3
	strh	r4, [r3, r1]	@ movhi
	add	r3, r3, #2
	add	r0, r0, ip
	uxth	r0, r0
	.loc 1 99 0
	rsb	r4, ip, r0
	uxth	r4, r4
	cmp	r2, r4
	bhi	.L18
	b	.L13
.LVL43:
.L16:
	.loc 1 41 0
	mov	r0, ip
.LVL44:
	mov	r3, #0
.L19:
	.loc 1 110 0
	ldrb	r4, [r9, #0]	@ zero_extendqisi2
.LVL45:
	strb	r4, [sp, #55]
.LVL46:
	.loc 1 111 0
	ldrb	r4, [r9, #1]	@ zero_extendqisi2
.LVL47:
	strb	r4, [sp, #54]
.LVL48:
	.loc 1 112 0
	ldrb	r4, [r9, #2]	@ zero_extendqisi2
.LVL49:
	strb	r4, [sp, #53]
	.loc 1 41 0
	add	r9, r9, #3
.LVL50:
	.loc 1 114 0
	ldrb	r6, [sp, #55]	@ zero_extendqisi2
.LVL51:
	ldrb	r4, [sp, #54]	@ zero_extendqisi2
.LVL52:
	ldrb	r5, [sp, #53]	@ zero_extendqisi2
.LVL53:
	mov	r6, r6, lsr #4
.LVL54:
	and	r4, r4, #240
.LVL55:
	orr	r4, r4, r6, asl #8
	orr	r4, r4, r5, lsr #4
	strh	r4, [r3, r1]	@ movhi
	add	r3, r3, #2
	add	r0, r0, ip
	uxth	r0, r0
	.loc 1 109 0
	rsb	r4, ip, r0
	uxth	r4, r4
	cmp	r2, r4
	bhi	.L19
	b	.L13
.LVL56:
.L15:
	.loc 1 41 0
	mov	r0, ip
.LVL57:
	mov	r3, #0
.L20:
	.loc 1 120 0
	ldrb	r4, [r9, #0]	@ zero_extendqisi2
.LVL58:
	strb	r4, [sp, #55]
.LVL59:
	.loc 1 121 0
	ldrb	r4, [r9, #1]	@ zero_extendqisi2
.LVL60:
	strb	r4, [sp, #54]
.LVL61:
	.loc 1 122 0
	ldrb	r4, [r9, #2]	@ zero_extendqisi2
.LVL62:
	strb	r4, [sp, #53]
	.loc 1 41 0
	add	r9, r9, #3
.LVL63:
	.loc 1 124 0
	ldrb	r6, [sp, #55]	@ zero_extendqisi2
.LVL64:
	ldrb	r4, [sp, #54]	@ zero_extendqisi2
.LVL65:
	ldrb	r5, [sp, #53]	@ zero_extendqisi2
.LVL66:
	mov	r6, r6, lsr #3
.LVL67:
	mov	r4, r4, lsr #3
.LVL68:
	mov	r4, r4, asl #5
	orr	r4, r4, r6, asl #10
	orr	r4, r4, r5, lsr #3
	strh	r4, [r3, r1]	@ movhi
	add	r3, r3, #2
	add	r0, r0, ip
	uxth	r0, r0
	.loc 1 119 0
	rsb	r4, ip, r0
	uxth	r4, r4
	cmp	r2, r4
	bhi	.L20
	b	.L13
.LVL69:
.L5:
	.loc 1 132 0
	cmp	r7, #48
	bne	.L13
	.loc 1 133 0
	sub	r3, r3, #4
.LVL70:
	cmp	r3, #5
	ldrls	pc, [pc, r3, asl #2]
	b	.L6
.L25:
	.word	.L21
	.word	.L6
	.word	.L22
	.word	.L23
	.word	.L6
	.word	.L24
.L24:
	.loc 1 136 0
	cmp	r2, #0
	bne	.L26
	b	.L13
.L23:
	.loc 1 149 0
	cmp	r2, #0
	bne	.L27
	b	.L13
.L22:
	.loc 1 169 0
	cmp	r2, #0
	bne	.L28
	b	.L13
.L21:
	.loc 1 159 0
	cmp	r2, #0
	bne	.L29
	b	.L13
.L26:
	.loc 1 41 0
	mov	r0, ip
.LVL71:
	mov	r1, #0
.LVL72:
	.loc 1 138 0
	mov	r6, #2
	.loc 1 139 0
	mov	r5, #4
	.loc 1 143 0
	mvn	r4, #0
	ldr	r3, [sp, #8]
.LVL73:
.L30:
	.loc 1 137 0
	mov	r7, r1
.LVL74:
	ldrb	r8, [r7, r9]!	@ zero_extendqisi2
.LVL75:
	strb	r8, [sp, #55]
	.loc 1 138 0
	ldrb	r8, [r7, r6]	@ zero_extendqisi2
.LVL76:
	strb	r8, [sp, #54]
.LVL77:
	.loc 1 139 0
	ldrb	r7, [r7, r5]	@ zero_extendqisi2
.LVL78:
	strb	r7, [sp, #53]
	.loc 1 140 0
	ldrb	r7, [sp, #53]	@ zero_extendqisi2
.LVL79:
	strb	r7, [r3, #0]
	.loc 1 141 0
	ldrb	r7, [sp, #54]	@ zero_extendqisi2
.LVL80:
	strb	r7, [r3, #1]
	.loc 1 142 0
	ldrb	r7, [sp, #55]	@ zero_extendqisi2
.LVL81:
	strb	r7, [r3, #2]
	.loc 1 143 0
	strb	r4, [r3, #3]
	.loc 1 41 0
	add	r3, r3, #4
	add	r1, ip, r1
.LVL82:
	uxth	r1, r1
.LVL83:
	add	r0, r0, ip
	uxth	r0, r0
	.loc 1 136 0
	rsb	r7, ip, r0
.LVL84:
	uxth	r7, r7
	cmp	r2, r7
	bhi	.L30
	b	.L13
.LVL85:
.L27:
	.loc 1 41 0
	mov	r5, ip
.LVL86:
	mov	r0, #0
	mov	r4, r0
.LVL87:
	.loc 1 151 0
	mov	r7, #2
.LVL88:
	.loc 1 152 0
	mov	r6, #4
.L31:
	.loc 1 150 0
	mov	r3, r4
	ldrb	r8, [r3, r9]!	@ zero_extendqisi2
.LVL89:
	strb	r8, [sp, #55]
	.loc 1 151 0
	ldrb	r8, [r3, r7]	@ zero_extendqisi2
.LVL90:
	strb	r8, [sp, #54]
.LVL91:
	.loc 1 152 0
	ldrb	r3, [r3, r6]	@ zero_extendqisi2
.LVL92:
	strb	r3, [sp, #53]
	.loc 1 154 0
	ldrb	sl, [sp, #55]	@ zero_extendqisi2
.LVL93:
	ldrb	r3, [sp, #54]	@ zero_extendqisi2
.LVL94:
	ldrb	r8, [sp, #53]	@ zero_extendqisi2
.LVL95:
	mov	sl, sl, lsr #3
.LVL96:
	mov	r3, r3, lsr #2
.LVL97:
	mov	r3, r3, asl #5
	orr	r3, r3, sl, asl #11
	orr	r3, r3, r8, lsr #3
	strh	r3, [r0, r1]	@ movhi
	add	r4, ip, r4
.LVL98:
	uxth	r4, r4
.LVL99:
	add	r0, r0, #2
	add	r5, r5, ip
	uxth	r5, r5
	.loc 1 149 0
	rsb	r3, ip, r5
	uxth	r3, r3
	cmp	r2, r3
	bhi	.L31
	b	.L13
.LVL100:
.L29:
	.loc 1 41 0
	mov	r5, ip
.LVL101:
	mov	r0, #0
	mov	r4, r0
.LVL102:
	.loc 1 161 0
	mov	r7, #2
.LVL103:
	.loc 1 162 0
	mov	r6, #4
.L32:
	.loc 1 160 0
	mov	r3, r4
	ldrb	r8, [r3, r9]!	@ zero_extendqisi2
.LVL104:
	strb	r8, [sp, #55]
	.loc 1 161 0
	ldrb	r8, [r3, r7]	@ zero_extendqisi2
.LVL105:
	strb	r8, [sp, #54]
.LVL106:
	.loc 1 162 0
	ldrb	r3, [r3, r6]	@ zero_extendqisi2
.LVL107:
	strb	r3, [sp, #53]
	.loc 1 164 0
	ldrb	sl, [sp, #55]	@ zero_extendqisi2
.LVL108:
	ldrb	r3, [sp, #54]	@ zero_extendqisi2
.LVL109:
	ldrb	r8, [sp, #53]	@ zero_extendqisi2
.LVL110:
	mov	sl, sl, lsr #4
.LVL111:
	and	r3, r3, #240
.LVL112:
	orr	r3, r3, sl, asl #8
	orr	r3, r3, r8, lsr #4
	strh	r3, [r0, r1]	@ movhi
	add	r4, ip, r4
.LVL113:
	uxth	r4, r4
.LVL114:
	add	r0, r0, #2
	add	r5, r5, ip
	uxth	r5, r5
	.loc 1 159 0
	rsb	r3, ip, r5
	uxth	r3, r3
	cmp	r3, r2
	bcc	.L32
	b	.L13
.LVL115:
.L28:
	.loc 1 41 0
	mov	r5, ip
.LVL116:
	mov	r0, #0
	mov	r4, r0
.LVL117:
	.loc 1 171 0
	mov	r7, #2
.LVL118:
	.loc 1 172 0
	mov	r6, #4
.L33:
	.loc 1 170 0
	mov	r3, r4
	ldrb	r8, [r3, r9]!	@ zero_extendqisi2
.LVL119:
	strb	r8, [sp, #55]
	.loc 1 171 0
	ldrb	r8, [r3, r7]	@ zero_extendqisi2
.LVL120:
	strb	r8, [sp, #54]
.LVL121:
	.loc 1 172 0
	ldrb	r3, [r3, r6]	@ zero_extendqisi2
.LVL122:
	strb	r3, [sp, #53]
	.loc 1 174 0
	ldrb	sl, [sp, #55]	@ zero_extendqisi2
.LVL123:
	ldrb	r3, [sp, #54]	@ zero_extendqisi2
.LVL124:
	ldrb	r8, [sp, #53]	@ zero_extendqisi2
.LVL125:
	mov	sl, sl, lsr #3
.LVL126:
	mov	r3, r3, lsr #3
.LVL127:
	mov	r3, r3, asl #5
	orr	r3, r3, sl, asl #10
	orr	r3, r3, r8, lsr #3
	strh	r3, [r0, r1]	@ movhi
	add	r4, ip, r4
.LVL128:
	uxth	r4, r4
.LVL129:
	add	r0, r0, #2
	add	r5, r5, ip
	uxth	r5, r5
	.loc 1 169 0
	rsb	r3, ip, r5
	uxth	r3, r3
	cmp	r2, r3
	bhi	.L33
	b	.L13
.LVL130:
.L3:
	.loc 1 187 0
	cmp	r2, #6
	bne	.L34
	.loc 1 189 0
	mov	r1, r7, lsr #3
.LVL131:
	.loc 1 190 0
	ldr	ip, [sp, #32]
	mul	r4, ip, r1
	ldr	r2, [sp, #104]
.LVL132:
	cmp	r4, r2
	movcs	r4, r2
	uxth	r4, r4
.LVL133:
	.loc 1 193 0
	movw	r2, #:lower16:conf
	movt	r2, #:upper16:conf
	ldr	r2, [r2, #0]
	ldrb	ip, [r2, #3]	@ zero_extendqisi2
	cmp	ip, #1
	bne	.L35
.LVL134:
	.loc 1 195 0
	ldrh	ip, [r2, #10]
	mul	ip, ip, r1
.LVL135:
	cmp	r4, ip
	movge	r4, ip
.LVL136:
	uxth	r4, r4
.LVL137:
	.loc 1 196 0
	ldrh	r2, [r2, #6]
	mla	r9, r2, r1, r9
.LVL138:
.L35:
	.loc 1 199 0
	cmp	r7, #32
	bne	.L36
	.loc 1 200 0
	cmp	r4, #0
	beq	.L13
	.loc 1 41 0
	mov	ip, r1
.LVL139:
	mov	r2, #0
.LVL140:
	str	r2, [sp, #24]
	.loc 1 202 0
	mov	r5, #1
	.loc 1 203 0
	mov	fp, #2
	.loc 1 207 0
	sub	r3, r3, #4
.LVL141:
	str	r3, [sp, #0]
	.loc 1 222 0
	movw	r3, #:lower16:-2139062143
	movt	r3, #:upper16:-2139062143
	str	r3, [sp, #4]
	mov	r3, r2
.LVL142:
	str	r7, [sp, #12]
.LVL143:
.L43:
	.loc 1 201 0
	mov	r0, r2
	ldrb	r6, [r0, r9]!	@ zero_extendqisi2
.LVL144:
	strb	r6, [sp, #55]
	.loc 1 202 0
	ldrb	r6, [r0, r5]	@ zero_extendqisi2
.LVL145:
	strb	r6, [sp, #54]
.LVL146:
	.loc 1 203 0
	ldrb	r6, [r0, fp]	@ zero_extendqisi2
.LVL147:
	strb	r6, [sp, #53]
.LVL148:
	.loc 1 204 0
	ldrb	r0, [r0, #3]	@ zero_extendqisi2
.LVL149:
	strb	r0, [sp, #52]
	.loc 1 207 0
	ldr	r6, [sp, #0]
	cmp	r6, #5
	ldrls	pc, [pc, r6, asl #2]
	b	.L37
.L42:
	.word	.L38
	.word	.L37
	.word	.L39
	.word	.L40
	.word	.L37
	.word	.L41
.LVL150:
.L41:
	.loc 1 210 0
	ldrb	r6, [sp, #53]	@ zero_extendqisi2
.LVL151:
	ldr	r0, [sp, #8]
.LVL152:
	strb	r6, [r0], #1
	.loc 1 211 0
	ldrb	r6, [sp, #54]	@ zero_extendqisi2
.LVL153:
	strb	r6, [r0], #1
	.loc 1 212 0
	ldrb	r6, [sp, #55]	@ zero_extendqisi2
.LVL154:
	strb	r6, [r0], #1
	.loc 1 213 0
	ldrb	r6, [sp, #52]	@ zero_extendqisi2
.LVL155:
	strb	r6, [r0], #1
	str	r0, [sp, #8]
	.loc 1 214 0
	b	.L37
.LVL156:
.L40:
	.loc 1 218 0
	ldr	r7, [sp, #16]
.LVL157:
	add	r0, r7, r3, asl #1
	ldrh	r6, [r0, #0]
.LVL158:
	.loc 1 219 0
	mov	r7, r6, lsr #8
	and	r7, r7, #248
.LVL159:
	strb	r7, [sp, #48]
	.loc 1 220 0
	mov	r7, r6, lsr #3
.LVL160:
	and	r7, r7, #252
.LVL161:
	strb	r7, [sp, #47]
	.loc 1 221 0
	mov	r6, r6, asl #3
.LVL162:
	uxtb	r6, r6
.LVL163:
	strb	r6, [sp, #46]
	.loc 1 222 0
	ldrb	r8, [sp, #52]	@ zero_extendqisi2
.LVL164:
	ldrb	r7, [sp, #55]	@ zero_extendqisi2
.LVL165:
	ldrb	r6, [sp, #52]	@ zero_extendqisi2
.LVL166:
	ldrb	sl, [sp, #48]	@ zero_extendqisi2
.LVL167:
	rsb	r6, r6, #255
.LVL168:
	mul	r7, r8, r7
.LVL169:
	mla	r6, sl, r6, r7
	ldr	r8, [sp, #4]
.LVL170:
	smull	r8, r7, r8, r6
	add	r7, r7, r6
	mov	r6, r6, asr #31
	rsb	r6, r6, r7, asr #7
	uxtb	r6, r6
.LVL171:
	strb	r6, [sp, #55]
	.loc 1 223 0
	ldrb	r8, [sp, #52]	@ zero_extendqisi2
.LVL172:
	ldrb	r7, [sp, #54]	@ zero_extendqisi2
.LVL173:
	ldrb	r6, [sp, #52]	@ zero_extendqisi2
.LVL174:
	ldrb	sl, [sp, #47]	@ zero_extendqisi2
.LVL175:
	rsb	r6, r6, #255
.LVL176:
	mul	r7, r8, r7
.LVL177:
	mla	r6, sl, r6, r7
	ldr	sl, [sp, #4]
.LVL178:
	smull	sl, r7, sl, r6
	add	r7, r7, r6
	mov	r6, r6, asr #31
	rsb	r6, r6, r7, asr #7
	uxtb	r6, r6
.LVL179:
	strb	r6, [sp, #54]
	.loc 1 224 0
	ldrb	r8, [sp, #52]	@ zero_extendqisi2
.LVL180:
	ldrb	r7, [sp, #53]	@ zero_extendqisi2
.LVL181:
	ldrb	r6, [sp, #52]	@ zero_extendqisi2
.LVL182:
	ldrb	sl, [sp, #46]	@ zero_extendqisi2
.LVL183:
	rsb	r6, r6, #255
.LVL184:
	mul	r7, r8, r7
.LVL185:
	mla	r6, sl, r6, r7
	ldr	r8, [sp, #4]
.LVL186:
	smull	r8, r7, r8, r6
	add	r7, r7, r6
	mov	r6, r6, asr #31
	rsb	r6, r6, r7, asr #7
	uxtb	r6, r6
.LVL187:
	strb	r6, [sp, #53]
	.loc 1 225 0
	ldrb	r8, [sp, #55]	@ zero_extendqisi2
.LVL188:
	ldrb	r7, [sp, #54]	@ zero_extendqisi2
.LVL189:
	ldrb	r6, [sp, #53]	@ zero_extendqisi2
.LVL190:
	mov	r8, r8, lsr #3
.LVL191:
	mov	r7, r7, lsr #2
.LVL192:
	mov	r7, r7, asl #5
	orr	r7, r7, r8, asl #11
	orr	r6, r7, r6, lsr #3
.LVL193:
	strh	r6, [r0, #0]	@ movhi
	.loc 1 229 0
	b	.L37
.LVL194:
.L38:
	.loc 1 232 0
	ldrb	r8, [sp, #52]	@ zero_extendqisi2
.LVL195:
	ldrb	r7, [sp, #55]	@ zero_extendqisi2
.LVL196:
	ldrb	sl, [sp, #54]	@ zero_extendqisi2
.LVL197:
	str	sl, [sp, #20]
	ldrb	r6, [sp, #53]	@ zero_extendqisi2
.LVL198:
	ldr	r0, [sp, #16]
	add	sl, r0, r3, asl #1
	mov	r8, r8, lsr #4
.LVL199:
	mov	r7, r7, lsr #4
.LVL200:
	mov	r7, r7, asl #8
	orr	r7, r7, r8, asl #12
	orr	r6, r7, r6, lsr #4
.LVL201:
	ldr	r7, [sp, #20]
	and	r0, r7, #240
	orr	r0, r6, r0
	strh	r0, [sl, #0]	@ movhi
	.loc 1 233 0
	b	.L37
.LVL202:
.L39:
	.loc 1 236 0
	ldrb	r8, [sp, #52]	@ zero_extendqisi2
.LVL203:
	ldrb	r7, [sp, #55]	@ zero_extendqisi2
.LVL204:
	ldrb	r6, [sp, #54]	@ zero_extendqisi2
.LVL205:
	ldrb	r0, [sp, #53]	@ zero_extendqisi2
.LVL206:
	ldr	sl, [sp, #16]
.LVL207:
	add	sl, sl, r3, asl #1
	str	sl, [sp, #20]
	mov	r8, r8, lsr #7
.LVL208:
	mov	r7, r7, lsr #3
.LVL209:
	mov	r7, r7, asl #10
	orr	r7, r7, r8, asl #15
	mov	r6, r6, lsr #3
.LVL210:
	orr	r0, r7, r0, lsr #3
.LVL211:
	orr	r0, r0, r6, asl #5
	strh	r0, [sl, #0]	@ movhi
.LVL212:
.L37:
	.loc 1 242 0
	add	r3, r3, #1
.LVL213:
	uxth	r3, r3
.LVL214:
	add	r2, r1, r2
.LVL215:
	uxth	r2, r2
.LVL216:
	add	ip, ip, r1
	uxth	ip, ip
	.loc 1 200 0
	rsb	r0, r1, ip
.LVL217:
	uxth	r0, r0
	cmp	r4, r0
	bhi	.L43
	str	r3, [sp, #24]
	ldr	r7, [sp, #12]
.LVL218:
	b	.L44
.LVL219:
.L36:
	.loc 1 246 0
	cmp	r7, #64
	bne	.L13
	.loc 1 247 0
	cmp	r4, #0
	beq	.L13
	.loc 1 41 0
	mov	ip, r1
.LVL220:
	mov	r2, #0
.LVL221:
	str	r2, [sp, #24]
	.loc 1 249 0
	mov	r5, #2
	.loc 1 250 0
	mov	fp, #4
	.loc 1 254 0
	sub	r0, r3, #4
	.loc 1 269 0
	movw	r3, #:lower16:-2139062143
.LVL222:
	movt	r3, #:upper16:-2139062143
	str	r3, [sp, #0]
	mov	r3, r2
.LVL223:
	str	r7, [sp, #12]
.LVL224:
.L51:
	.loc 1 248 0
	mov	r6, r2
	ldrb	r7, [r6, r9]!	@ zero_extendqisi2
.LVL225:
	strb	r7, [sp, #55]
	.loc 1 249 0
	ldrb	r7, [r6, r5]	@ zero_extendqisi2
.LVL226:
	strb	r7, [sp, #54]
.LVL227:
	.loc 1 250 0
	ldrb	r7, [r6, fp]	@ zero_extendqisi2
.LVL228:
	strb	r7, [sp, #53]
	.loc 1 251 0
	ldrb	r6, [r6, #6]	@ zero_extendqisi2
.LVL229:
	strb	r6, [sp, #52]
	.loc 1 254 0
	cmp	r0, #5
	ldrls	pc, [pc, r0, asl #2]
	b	.L45
.L50:
	.word	.L46
	.word	.L45
	.word	.L47
	.word	.L48
	.word	.L45
	.word	.L49
.LVL230:
.L49:
	.loc 1 257 0
	ldrb	r7, [sp, #53]	@ zero_extendqisi2
.LVL231:
	ldr	r6, [sp, #8]
.LVL232:
	strb	r7, [r6], #1
	.loc 1 258 0
	ldrb	r7, [sp, #54]	@ zero_extendqisi2
.LVL233:
	strb	r7, [r6], #1
	.loc 1 259 0
	ldrb	r7, [sp, #55]	@ zero_extendqisi2
.LVL234:
	strb	r7, [r6], #1
	.loc 1 260 0
	ldrb	r7, [sp, #52]	@ zero_extendqisi2
.LVL235:
	strb	r7, [r6], #1
	str	r6, [sp, #8]
	.loc 1 261 0
	b	.L45
.LVL236:
.L48:
	.loc 1 265 0
	ldr	r6, [sp, #16]
	add	r6, r6, r3, asl #1
	str	r6, [sp, #4]
	ldrh	r6, [r6, #0]
.LVL237:
	.loc 1 266 0
	mov	r7, r6, lsr #8
	and	r7, r7, #248
.LVL238:
	strb	r7, [sp, #48]
	.loc 1 267 0
	mov	r7, r6, lsr #3
.LVL239:
	and	r7, r7, #252
.LVL240:
	strb	r7, [sp, #47]
	.loc 1 268 0
	mov	r6, r6, asl #3
.LVL241:
	uxtb	r6, r6
.LVL242:
	strb	r6, [sp, #46]
	.loc 1 269 0
	ldrb	r7, [sp, #52]	@ zero_extendqisi2
.LVL243:
	ldrb	r6, [sp, #55]	@ zero_extendqisi2
.LVL244:
	ldrb	r8, [sp, #52]	@ zero_extendqisi2
.LVL245:
	ldrb	sl, [sp, #48]	@ zero_extendqisi2
.LVL246:
	rsb	r8, r8, #255
.LVL247:
	mul	r6, r7, r6
.LVL248:
	mla	r6, sl, r8, r6
	ldr	r8, [sp, #0]
	smull	r8, r7, r8, r6
.LVL249:
	add	r7, r7, r6
	mov	r6, r6, asr #31
	rsb	r6, r6, r7, asr #7
	uxtb	r6, r6
.LVL250:
	strb	r6, [sp, #55]
	.loc 1 270 0
	ldrb	r7, [sp, #52]	@ zero_extendqisi2
.LVL251:
	ldrb	r6, [sp, #54]	@ zero_extendqisi2
.LVL252:
	ldrb	r8, [sp, #52]	@ zero_extendqisi2
.LVL253:
	ldrb	sl, [sp, #47]	@ zero_extendqisi2
.LVL254:
	rsb	r8, r8, #255
.LVL255:
	mul	r6, r7, r6
.LVL256:
	mla	r6, sl, r8, r6
	ldr	sl, [sp, #0]
.LVL257:
	smull	sl, r7, sl, r6
.LVL258:
	add	r7, r7, r6
	mov	r6, r6, asr #31
	rsb	r6, r6, r7, asr #7
	uxtb	r6, r6
.LVL259:
	strb	r6, [sp, #54]
	.loc 1 271 0
	ldrb	r7, [sp, #52]	@ zero_extendqisi2
.LVL260:
	ldrb	r6, [sp, #53]	@ zero_extendqisi2
.LVL261:
	ldrb	r8, [sp, #52]	@ zero_extendqisi2
.LVL262:
	ldrb	sl, [sp, #46]	@ zero_extendqisi2
.LVL263:
	rsb	r8, r8, #255
.LVL264:
	mul	r6, r7, r6
.LVL265:
	mla	r6, sl, r8, r6
	ldr	r8, [sp, #0]
	smull	r8, r7, r8, r6
.LVL266:
	add	r7, r7, r6
	mov	r6, r6, asr #31
	rsb	r6, r6, r7, asr #7
	uxtb	r6, r6
.LVL267:
	strb	r6, [sp, #53]
	.loc 1 272 0
	ldrb	r8, [sp, #55]	@ zero_extendqisi2
.LVL268:
	ldrb	r7, [sp, #54]	@ zero_extendqisi2
.LVL269:
	ldrb	r6, [sp, #53]	@ zero_extendqisi2
.LVL270:
	mov	r8, r8, lsr #3
.LVL271:
	mov	r7, r7, lsr #2
.LVL272:
	mov	r7, r7, asl #5
	orr	r7, r7, r8, asl #11
	orr	r6, r7, r6, lsr #3
.LVL273:
	ldr	sl, [sp, #4]
.LVL274:
	strh	r6, [sl, #0]	@ movhi
	.loc 1 276 0
	b	.L45
.LVL275:
.L46:
	.loc 1 279 0
	ldrb	r8, [sp, #52]	@ zero_extendqisi2
.LVL276:
	ldrb	r7, [sp, #55]	@ zero_extendqisi2
.LVL277:
	ldrb	r6, [sp, #54]	@ zero_extendqisi2
	str	r6, [sp, #20]
	ldrb	r6, [sp, #53]	@ zero_extendqisi2
.LVL278:
	ldr	sl, [sp, #16]
	add	sl, sl, r3, asl #1
	str	sl, [sp, #4]
	mov	r8, r8, lsr #4
.LVL279:
	mov	r7, r7, lsr #4
.LVL280:
	mov	r7, r7, asl #8
	orr	r7, r7, r8, asl #12
	orr	r6, r7, r6, lsr #4
.LVL281:
	ldr	r7, [sp, #20]
	and	sl, r7, #240
	orr	r6, r6, sl
	ldr	r8, [sp, #4]
	strh	r6, [r8, #0]	@ movhi
	.loc 1 280 0
	b	.L45
.LVL282:
.L47:
	.loc 1 283 0
	ldrb	r8, [sp, #52]	@ zero_extendqisi2
.LVL283:
	ldrb	r7, [sp, #55]	@ zero_extendqisi2
.LVL284:
	ldrb	sl, [sp, #54]	@ zero_extendqisi2
	str	sl, [sp, #20]
	ldrb	sl, [sp, #53]	@ zero_extendqisi2
.LVL285:
	ldr	r6, [sp, #16]
	add	r6, r6, r3, asl #1
	str	r6, [sp, #4]
	mov	r8, r8, lsr #7
.LVL286:
	mov	r7, r7, lsr #3
.LVL287:
	mov	r7, r7, asl #10
	orr	r7, r7, r8, asl #15
	ldr	r8, [sp, #20]
	mov	r6, r8, lsr #3
	orr	r7, r7, sl, lsr #3
	orr	r6, r7, r6, asl #5
	ldr	sl, [sp, #4]
.LVL288:
	strh	r6, [sl, #0]	@ movhi
.LVL289:
.L45:
	.loc 1 289 0
	add	r3, r3, #1
.LVL290:
	uxth	r3, r3
.LVL291:
	add	r2, r1, r2
.LVL292:
	uxth	r2, r2
.LVL293:
	add	ip, ip, r1
	uxth	ip, ip
	.loc 1 247 0
	rsb	r6, r1, ip
.LVL294:
	uxth	r6, r6
	cmp	r4, r6
	bhi	.L51
	str	r3, [sp, #24]
	ldr	r7, [sp, #12]
.LVL295:
	b	.L44
.LVL296:
.L34:
	.loc 1 297 0
	cmp	r2, #4
	bne	.L52
	.loc 1 299 0
	mov	r1, r7, lsr #3
.LVL297:
	.loc 1 300 0
	ldr	ip, [sp, #32]
	mul	r4, ip, r1
	ldr	r2, [sp, #104]
.LVL298:
	cmp	r4, r2
	movcs	r4, r2
	uxth	r4, r4
.LVL299:
	.loc 1 303 0
	movw	r2, #:lower16:conf
	movt	r2, #:upper16:conf
	ldr	r2, [r2, #0]
	ldrb	ip, [r2, #3]	@ zero_extendqisi2
	cmp	ip, #1
	bne	.L53
.LVL300:
	.loc 1 305 0
	ldrh	ip, [r2, #10]
	mul	ip, ip, r1
.LVL301:
	cmp	r4, ip
	movge	r4, ip
.LVL302:
	uxth	r4, r4
.LVL303:
	.loc 1 306 0
	ldrh	r2, [r2, #6]
	mla	r9, r2, r1, r9
.LVL304:
.L53:
	.loc 1 309 0
	cmp	r4, #0
	beq	.L13
	.loc 1 41 0
	mov	ip, r1
.LVL305:
	mov	r2, #0
.LVL306:
	str	r2, [sp, #24]
	.loc 1 312 0
	mov	r8, #1
.LVL307:
	.loc 1 317 0
	sub	r3, r3, #4
.LVL308:
	mov	r0, r2
.LVL309:
.L62:
	.loc 1 311 0
	cmp	r7, #16
	bne	.L54
	.loc 1 312 0
	add	r5, r2, r9
	ldrb	r5, [r5, r8]	@ zero_extendqisi2
.LVL310:
	strb	r5, [sp, #52]
	b	.L55
.LVL311:
.L54:
	.loc 1 314 0
	cmp	r7, #32
	bne	.L55
	.loc 1 315 0
	add	r5, r2, r9
	ldrb	r5, [r5, #2]	@ zero_extendqisi2
.LVL312:
	strb	r5, [sp, #52]
.LVL313:
.L55:
	.loc 1 317 0
	cmp	r3, #5
	ldrls	pc, [pc, r3, asl #2]
	b	.L56
.L61:
	.word	.L57
	.word	.L56
	.word	.L58
	.word	.L59
	.word	.L56
	.word	.L60
.L60:
	.loc 1 320 0
	add	r5, r9, r2
	ldrb	fp, [r5, #0]	@ zero_extendqisi2
	ldr	r6, [sp, #8]
	strb	fp, [r6], #1
	.loc 1 321 0
	ldrb	fp, [r5, #0]	@ zero_extendqisi2
	strb	fp, [r6], #1
	.loc 1 322 0
	ldrb	r5, [r5, #0]	@ zero_extendqisi2
	strb	r5, [r6], #1
	.loc 1 323 0
	ldrb	r5, [sp, #52]	@ zero_extendqisi2
.LVL314:
	strb	r5, [r6], #1
	str	r6, [sp, #8]
	.loc 1 324 0
	b	.L56
.LVL315:
.L59:
	.loc 1 327 0
	ldrb	r6, [r9, r2]	@ zero_extendqisi2
.LVL316:
	mov	r5, r6, lsr #3
	ldr	sl, [sp, #16]
	add	fp, sl, r0, asl #1
	mov	r6, r6, lsr #2
.LVL317:
	mov	r6, r6, asl #5
	orr	r6, r6, r5, asl #11
	orr	r5, r5, r6
	strh	r5, [fp, #0]	@ movhi
	.loc 1 328 0
	b	.L56
.LVL318:
.L57:
	.loc 1 332 0
	ldrb	r6, [sp, #52]	@ zero_extendqisi2
.LVL319:
	ldrb	r5, [r9, r2]	@ zero_extendqisi2
	mov	r5, r5, lsr #4
	ldr	sl, [sp, #16]
	add	fp, sl, r0, asl #1
	mov	r6, r6, lsr #4
.LVL320:
	orr	r6, r5, r6, asl #12
	orr	r6, r6, r5, asl #8
	orr	r5, r6, r5, asl #4
	strh	r5, [fp, #0]	@ movhi
	.loc 1 333 0
	b	.L56
.LVL321:
.L58:
	.loc 1 337 0
	ldrb	r6, [sp, #52]	@ zero_extendqisi2
.LVL322:
	ldrb	r5, [r9, r2]	@ zero_extendqisi2
	mov	r5, r5, lsr #3
	ldr	sl, [sp, #16]
	add	fp, sl, r0, asl #1
	mov	r6, r6, lsr #7
.LVL323:
	orr	r6, r5, r6, asl #15
	orr	r6, r6, r5, asl #10
	orr	r5, r6, r5, asl #5
	strh	r5, [fp, #0]	@ movhi
.LVL324:
.L56:
	.loc 1 342 0
	add	r0, r0, #1
.LVL325:
	uxth	r0, r0
.LVL326:
	add	r2, r1, r2
.LVL327:
	uxth	r2, r2
.LVL328:
	add	ip, ip, r1
	uxth	ip, ip
	.loc 1 309 0
	rsb	r5, r1, ip
.LVL329:
	uxth	r5, r5
	cmp	r5, r4
	bcc	.L62
	str	r0, [sp, #24]
	b	.L44
.LVL330:
.L52:
	.loc 1 351 0
	cmp	r2, #0
	bne	.L63
	.loc 1 352 0
	cmp	r7, #16
	beq	.L64
	.loc 1 402 0
	ldr	ip, [sp, #104]
	sub	r4, ip, #1
	.loc 1 406 0
	str	r7, [sp, #28]
	.loc 1 429 0
	sub	r2, r7, #1
.LVL331:
	mvn	r1, #1
	mvn	r1, r1, asl r2
	str	r1, [sp, #12]
	mov	sl, #0
	mov	r6, sl
.LVL332:
	str	sl, [sp, #24]
	mov	r5, sl
.LVL333:
	.loc 1 406 0
	rsb	r8, r7, #8
.LVL334:
	.loc 1 409 0
	movw	fp, #:lower16:conf
	movt	fp, #:upper16:conf
	.loc 1 433 0
	sub	r3, r3, #4
.LVL335:
	stmia	sp, {r3, r9}	@ phole stm
	mov	r9, r4
.LVL336:
	b	.L65
.LVL337:
.L64:
	.loc 1 356 0
	ldr	r0, [sp, #32]
	mov	r1, r0, asl #1
	ldr	r2, [sp, #104]
.LVL338:
	cmp	r1, r2
	movcs	r1, r2
	uxth	r1, r1
.LVL339:
	.loc 1 359 0
	movw	r2, #:lower16:conf
	movt	r2, #:upper16:conf
	ldr	r2, [r2, #0]
	ldrb	r0, [r2, #3]	@ zero_extendqisi2
	cmp	r0, #1
	bne	.L66
.LVL340:
	.loc 1 361 0
	ldrh	r0, [r2, #10]
	mov	r0, r0, asl #1
	cmp	r1, r0
	movge	r1, r0
.LVL341:
	uxth	r1, r1
.LVL342:
	.loc 1 362 0
	ldrh	r2, [r2, #6]
	add	r9, r9, r2, asl #1
.L66:
	.loc 1 365 0
	cmp	r1, #0
	beq	.L13
	mov	r2, #0
.LVL343:
	str	r2, [sp, #24]
	.loc 1 369 0
	sub	r3, r3, #4
.LVL344:
	.loc 1 375 0
	mvn	r6, #0
	ldr	ip, [sp, #8]
.LVL345:
	ldr	fp, [sp, #16]
.LVL346:
	mov	r0, r2
.LVL347:
.L73:
	.loc 1 366 0
	ldrb	r4, [r9, r2]	@ zero_extendqisi2
.LVL348:
	strb	r4, [sp, #55]
	.loc 1 367 0
	ldrb	r4, [sp, #55]	@ zero_extendqisi2
.LVL349:
	strb	r4, [sp, #54]
	.loc 1 368 0
	ldrb	r4, [sp, #55]	@ zero_extendqisi2
.LVL350:
	strb	r4, [sp, #53]
	.loc 1 369 0
	cmp	r3, #5
	ldrls	pc, [pc, r3, asl #2]
	b	.L67
.L72:
	.word	.L68
	.word	.L67
	.word	.L69
	.word	.L70
	.word	.L67
	.word	.L71
.LVL351:
.L71:
	.loc 1 372 0
	ldrb	r4, [sp, #55]	@ zero_extendqisi2
.LVL352:
	strb	r4, [ip], #1
	.loc 1 373 0
	ldrb	r4, [sp, #55]	@ zero_extendqisi2
.LVL353:
	strb	r4, [ip], #1
	.loc 1 374 0
	ldrb	r4, [sp, #55]	@ zero_extendqisi2
.LVL354:
	strb	r4, [ip], #1
	.loc 1 375 0
	strb	r6, [ip], #1
	.loc 1 376 0
	b	.L67
.LVL355:
.L70:
	.loc 1 379 0
	ldrb	sl, [sp, #55]	@ zero_extendqisi2
.LVL356:
	ldrb	r8, [sp, #54]	@ zero_extendqisi2
.LVL357:
	ldrb	r5, [sp, #53]	@ zero_extendqisi2
.LVL358:
	add	r4, fp, r0, asl #1
	mov	sl, sl, lsr #3
.LVL359:
	mov	r8, r8, lsr #2
.LVL360:
	mov	r8, r8, asl #5
	orr	r8, r8, sl, asl #11
	orr	r5, r8, r5, lsr #3
.LVL361:
	strh	r5, [r4, #0]	@ movhi
	.loc 1 380 0
	b	.L67
.LVL362:
.L68:
	.loc 1 383 0
	ldrb	sl, [sp, #55]	@ zero_extendqisi2
.LVL363:
	ldrb	r8, [sp, #54]	@ zero_extendqisi2
.LVL364:
	ldrb	r5, [sp, #53]	@ zero_extendqisi2
.LVL365:
	add	r4, fp, r0, asl #1
	mov	sl, sl, lsr #4
.LVL366:
	and	r8, r8, #240
.LVL367:
	orr	r8, r8, sl, asl #8
	orr	r5, r8, r5, lsr #4
.LVL368:
	strh	r5, [r4, #0]	@ movhi
	.loc 1 385 0
	b	.L67
.LVL369:
.L69:
	.loc 1 388 0
	ldrb	sl, [sp, #55]	@ zero_extendqisi2
.LVL370:
	ldrb	r8, [sp, #54]	@ zero_extendqisi2
.LVL371:
	ldrb	r5, [sp, #53]	@ zero_extendqisi2
.LVL372:
	add	r4, fp, r0, asl #1
	mov	sl, sl, lsr #3
.LVL373:
	mov	r8, r8, lsr #3
.LVL374:
	mov	r8, r8, asl #5
	orr	r8, r8, sl, asl #10
	orr	r5, r8, r5, lsr #3
.LVL375:
	strh	r5, [r4, #0]	@ movhi
.LVL376:
.L67:
	.loc 1 393 0
	add	r0, r0, #1
.LVL377:
	uxth	r0, r0
.LVL378:
	.loc 1 394 0
	add	r2, r2, #2
.LVL379:
	uxth	r2, r2
.LVL380:
	.loc 1 365 0
	cmp	r2, r1
	bcc	.L73
	str	r0, [sp, #24]
	b	.L44
.LVL381:
.L65:
	.loc 1 403 0
	cmp	r9, sl
	bne	.L74
	.loc 1 404 0
	ldr	r3, [sp, #24]
	mov	r0, r3, asl #3
	ldr	r1, [sp, #28]
	bl	__aeabi_idiv
	uxth	r0, r0
	str	r0, [sp, #36]
.LVL382:
.L74:
	.loc 1 405 0
	mov	ip, #0
	strb	ip, [sp, #49]
.LVL383:
	.loc 1 406 0
	strb	ip, [sp, #50]
.LVL384:
	ldrb	r3, [sp, #50]	@ zero_extendqisi2
.LVL385:
	cmp	r3, r8
	bgt	.L75
	add	r4, r5, #1
	uxth	r4, r4
.LVL386:
	.loc 1 422 0
	ldr	r0, [sp, #116]
	ldr	r1, [sp, #36]
	rsb	r0, r1, r0
	str	r0, [sp, #20]
.LVL387:
.L90:
	.loc 1 406 0
	sub	r5, r4, #1
	uxth	r5, r5
.LVL388:
	.loc 1 409 0
	ldr	r3, [fp, #0]
.LVL389:
	ldrb	r2, [r3, #3]	@ zero_extendqisi2
	cmp	r2, #1
	bne	.L76
	.loc 1 411 0
	ldrh	r2, [r3, #6]
	cmp	r2, r5
	bls	.L77
	.loc 1 414 0
	add	r6, r6, #1
.LVL390:
	uxth	r6, r6
.LVL391:
	.loc 1 415 0
	b	.L78
.L77:
	.loc 1 417 0
	ldrh	r0, [r3, #10]
	add	r3, r0, r2
	cmp	r3, r5
	beq	.L80
	.loc 1 418 0
	rsb	r6, r2, r5
.LVL392:
	uxth	r6, r6
.LVL393:
.L76:
	.loc 1 421 0
	cmp	r9, sl
	bne	.L81
	.loc 1 422 0
	ldrb	r3, [sp, #49]	@ zero_extendqisi2
.LVL394:
	ldr	r2, [sp, #20]
	cmp	r3, r2
	beq	.L75
.LVL395:
.L81:
	.loc 1 425 0
	ldrb	r3, [sp, #50]	@ zero_extendqisi2
.LVL396:
	ldr	ip, [sp, #4]
	ldrb	r2, [ip, sl]	@ zero_extendqisi2
	mov	r3, r2, asl r3
.LVL397:
	uxtb	r3, r3
.LVL398:
	strb	r3, [sp, #55]
	.loc 1 426 0
	ldrb	r3, [sp, #55]	@ zero_extendqisi2
.LVL399:
	mov	r3, r3, asr r8
.LVL400:
	uxtb	r3, r3
.LVL401:
	strb	r3, [sp, #55]
	.loc 1 428 0
	cmp	r7, #8
	beq	.L82
.LVL402:
	.loc 1 429 0
	ldrb	r5, [sp, #55]	@ zero_extendqisi2
.LVL403:
	mov	r0, #255
	ldr	r1, [sp, #12]
	bl	__aeabi_idiv
	mul	r5, r0, r5
.LVL404:
	uxtb	r5, r5
.LVL405:
	strb	r5, [sp, #55]
.LVL406:
.L82:
	.loc 1 431 0
	ldrb	r3, [sp, #55]	@ zero_extendqisi2
.LVL407:
	strb	r3, [sp, #54]
	.loc 1 432 0
	ldrb	r3, [sp, #55]	@ zero_extendqisi2
.LVL408:
	strb	r3, [sp, #53]
	.loc 1 433 0
	ldr	r0, [sp, #0]
	cmp	r0, #5
	ldrls	pc, [pc, r0, asl #2]
	b	.L83
.L88:
	.word	.L84
	.word	.L83
	.word	.L85
	.word	.L86
	.word	.L83
	.word	.L87
.L87:
	.loc 1 435 0
	ldrb	r3, [sp, #55]	@ zero_extendqisi2
.LVL409:
	ldr	r2, [sp, #8]
.LVL410:
	strb	r3, [r2], #1
	.loc 1 436 0
	ldrb	r3, [sp, #55]	@ zero_extendqisi2
.LVL411:
	strb	r3, [r2], #1
	.loc 1 437 0
	ldrb	r3, [sp, #55]	@ zero_extendqisi2
.LVL412:
	strb	r3, [r2], #1
	.loc 1 438 0
	mvn	r1, #0
	strb	r1, [r2], #1
	str	r2, [sp, #8]
	.loc 1 439 0
	b	.L83
.LVL413:
.L86:
	.loc 1 442 0
	ldrb	r0, [sp, #55]	@ zero_extendqisi2
.LVL414:
	ldrb	r1, [sp, #54]	@ zero_extendqisi2
.LVL415:
	ldrb	r2, [sp, #53]	@ zero_extendqisi2
.LVL416:
	ldr	ip, [sp, #16]
	add	r3, ip, r6, asl #1
	mov	r0, r0, lsr #3
.LVL417:
	mov	r1, r1, lsr #2
.LVL418:
	mov	r1, r1, asl #5
	orr	r1, r1, r0, asl #11
	orr	r1, r1, r2, lsr #3
	strh	r1, [r3, #0]	@ movhi
	.loc 1 443 0
	b	.L83
.LVL419:
.L84:
	.loc 1 446 0
	ldrb	r0, [sp, #55]	@ zero_extendqisi2
.LVL420:
	ldrb	r1, [sp, #54]	@ zero_extendqisi2
.LVL421:
	ldrb	r2, [sp, #53]	@ zero_extendqisi2
.LVL422:
	ldr	ip, [sp, #16]
	add	r3, ip, r6, asl #1
	mov	r0, r0, lsr #4
.LVL423:
	and	r1, r1, #240
.LVL424:
	orr	r1, r1, r0, asl #8
	orr	r1, r1, r2, lsr #4
	strh	r1, [r3, #0]	@ movhi
	.loc 1 447 0
	b	.L83
.LVL425:
.L85:
	.loc 1 450 0
	ldrb	r0, [sp, #55]	@ zero_extendqisi2
.LVL426:
	ldrb	r1, [sp, #54]	@ zero_extendqisi2
.LVL427:
	ldrb	r2, [sp, #53]	@ zero_extendqisi2
.LVL428:
	ldr	ip, [sp, #16]
	add	r3, ip, r6, asl #1
	mov	r0, r0, lsr #3
.LVL429:
	mov	r1, r1, lsr #3
.LVL430:
	mov	r1, r1, asl #5
	orr	r1, r1, r0, asl #10
	orr	r1, r1, r2, lsr #3
	strh	r1, [r3, #0]	@ movhi
.LVL431:
.L83:
	.loc 1 455 0
	add	r6, r6, #1
.LVL432:
	uxth	r6, r6
.LVL433:
	.loc 1 457 0
	ldrb	r3, [sp, #49]	@ zero_extendqisi2
.LVL434:
	add	r3, r3, #1
.LVL435:
	uxtb	r3, r3
.LVL436:
	strb	r3, [sp, #49]
.LVL437:
.L78:
	.loc 1 406 0
	ldrb	r3, [sp, #50]	@ zero_extendqisi2
.LVL438:
	add	r3, r7, r3
.LVL439:
	uxtb	r3, r3
.LVL440:
	strb	r3, [sp, #50]
	ldrb	r3, [sp, #50]	@ zero_extendqisi2
.LVL441:
	add	r2, r4, #1
.LVL442:
	uxth	r2, r2
.LVL443:
	cmp	r3, r8
	bgt	.L89
	mov	r4, r2
	b	.L90
.LVL444:
.L89:
	mov	r5, r4
.LVL445:
.L75:
	.loc 1 460 0
	ldr	r0, [sp, #24]
	add	r3, r0, #1
.LVL446:
	uxth	r3, r3
	str	r3, [sp, #24]
	.loc 1 402 0
	mov	sl, r3
	ldr	r1, [sp, #32]
	cmp	r6, r1
	cmpls	r3, r9
	bls	.L65
.LVL447:
	b	.L44
.LVL448:
.L63:
	.loc 1 471 0
	cmp	r2, #3
	bne	.L13
	.loc 1 476 0
	ldr	r2, [sp, #104]
.LVL449:
	sub	r2, r2, #1
	str	r2, [sp, #8]
	mov	r5, #0
	mov	r4, r5
.LVL450:
	str	r5, [sp, #24]
	mov	r6, r5
.LVL451:
	.loc 1 485 0
	movw	sl, #:lower16:conf
	movt	sl, #:upper16:conf
	.loc 1 522 0
	sub	r3, r3, #4
.LVL452:
	str	r3, [sp, #0]
	.loc 1 556 0
	movw	fp, #:lower16:-2139062143
	movt	fp, #:upper16:-2139062143
	str	r9, [sp, #12]
	mov	r9, sl
.LVL453:
.L107:
	.loc 1 478 0
	ldr	r3, [sp, #8]
	cmp	r3, r5
	bne	.L91
	.loc 1 479 0
	ldr	sl, [sp, #24]
	mov	r0, sl, asl #3
	mov	r1, r7
	bl	__aeabi_idiv
.LVL454:
	uxth	r0, r0
	str	r0, [sp, #36]
.LVL455:
.L91:
	.loc 1 481 0
	mov	r3, #0
	strb	r3, [sp, #49]
.LVL456:
	.loc 1 482 0
	strb	r3, [sp, #50]
.LVL457:
	ldrb	r3, [sp, #50]	@ zero_extendqisi2
.LVL458:
	rsb	r2, r7, #8
	cmp	r3, r2
	bgt	.L92
	add	r3, r6, #1
.LVL459:
	uxth	r3, r3
.LVL460:
	.loc 1 498 0
	ldr	ip, [sp, #116]
.LVL461:
	ldr	r0, [sp, #36]
	rsb	ip, r0, ip
	str	ip, [sp, #28]
	mov	sl, r7
.LVL462:
.L106:
	.loc 1 482 0
	sub	r6, r3, #1
	uxth	r6, r6
.LVL463:
	.loc 1 485 0
	ldr	r1, [r9, #0]
.LVL464:
	ldrb	r0, [r1, #3]	@ zero_extendqisi2
	cmp	r0, #1
	bne	.L93
	.loc 1 487 0
	ldrh	r0, [r1, #6]
	cmp	r6, r0
	bcs	.L94
	.loc 1 490 0
	add	r4, r4, #1
.LVL465:
	uxth	r4, r4
.LVL466:
	.loc 1 491 0
	b	.L95
.L94:
	.loc 1 493 0
	ldrh	r1, [r1, #10]
	add	ip, r1, r0
.LVL467:
	cmp	ip, r6
	bne	.L96
	mov	r0, r1
	b	.L80
.L96:
	.loc 1 494 0
	rsb	r0, r0, r6
	uxth	r4, r0
.LVL468:
.L93:
	.loc 1 496 0
	ldr	r1, [sp, #8]
	cmp	r1, r5
	bne	.L97
	.loc 1 498 0
	ldrb	r1, [sp, #49]	@ zero_extendqisi2
.LVL469:
	ldr	r7, [sp, #28]
	cmp	r1, r7
	beq	.L125
.LVL470:
.L97:
	.loc 1 501 0
	ldrb	r1, [sp, #50]	@ zero_extendqisi2
.LVL471:
	ldr	ip, [sp, #12]
.LVL472:
	ldrb	r0, [ip, r5]	@ zero_extendqisi2
	mov	r1, r0, asl r1
.LVL473:
	uxtb	r1, r1
.LVL474:
	strb	r1, [sp, #51]
	.loc 1 502 0
	ldrb	r1, [sp, #51]	@ zero_extendqisi2
.LVL475:
	mov	r1, r1, asr r2
.LVL476:
	uxtb	r1, r1
.LVL477:
	strb	r1, [sp, #51]
	.loc 1 508 0
	mvn	r0, #0
	strb	r0, [sp, #52]
.LVL478:
	.loc 1 509 0
	ldrb	r1, [sp, #51]	@ zero_extendqisi2
.LVL479:
	ldr	r6, [sp, #4]
.LVL480:
	ldrh	r0, [r6, #22]
	cmp	r0, r1
	bls	.L98
	.loc 1 511 0
	ldrb	r1, [sp, #51]	@ zero_extendqisi2
.LVL481:
	ldr	r7, [sp, #20]
	ldrb	r1, [r7, r1]	@ zero_extendqisi2
.LVL482:
	strb	r1, [sp, #52]
	.loc 1 512 0
	ldrb	r1, [sp, #52]	@ zero_extendqisi2
.LVL483:
	cmp	r1, #0
	bne	.L98
	.loc 1 515 0
	add	r4, r4, #1
.LVL484:
	uxth	r4, r4
.LVL485:
	.loc 1 516 0
	ldrb	r1, [sp, #49]	@ zero_extendqisi2
.LVL486:
	add	r1, r1, #1
.LVL487:
	uxtb	r1, r1
.LVL488:
	strb	r1, [sp, #49]
	.loc 1 517 0
	b	.L95
.LVL489:
.L98:
	.loc 1 520 0
	ldr	ip, [sp, #16]
	add	r1, ip, r4, asl #1
.LVL490:
	ldrh	r0, [r1, #0]
.LVL491:
	.loc 1 522 0
	ldr	r6, [sp, #0]
	cmp	r6, #5
	ldrls	pc, [pc, r6, asl #2]
	b	.L99
.L104:
	.word	.L100
	.word	.L99
	.word	.L101
	.word	.L102
	.word	.L99
	.word	.L103
.L103:
	.loc 1 525 0
	ldr	r7, [sp, #16]
	add	r1, r7, r4, asl #2
.LVL492:
	.loc 1 526 0
	ldrb	r0, [sp, #51]	@ zero_extendqisi2
.LVL493:
	add	r0, r0, r0, asl #1
.LVL494:
	add	r0, r0, r8
	ldrb	r0, [r0, #2]	@ zero_extendqisi2
	strb	r0, [r1, #0]
	.loc 1 527 0
	ldrb	r0, [sp, #51]	@ zero_extendqisi2
.LVL495:
	add	r0, r0, r0, asl #1
.LVL496:
	add	r0, r0, r8
	ldrb	r0, [r0, #1]	@ zero_extendqisi2
	strb	r0, [r1, #1]!
	.loc 1 528 0
	ldrb	r0, [sp, #51]	@ zero_extendqisi2
.LVL497:
	add	r0, r0, r0, asl #1
.LVL498:
	ldrb	r0, [r0, r8]	@ zero_extendqisi2
	strb	r0, [r1, #1]!
	.loc 1 529 0
	ldrb	r0, [sp, #52]	@ zero_extendqisi2
.LVL499:
	strb	r0, [r1, #1]
	.loc 1 530 0
	b	.L99
.LVL500:
.L102:
	.loc 1 532 0
	mov	ip, r0, lsr #8
	and	ip, ip, #248
.LVL501:
	strb	ip, [sp, #48]
	.loc 1 533 0
	mov	ip, r0, lsr #3
.LVL502:
	and	ip, ip, #252
.LVL503:
	strb	ip, [sp, #47]
	.loc 1 534 0
	mov	r0, r0, asl #3
.LVL504:
	uxtb	r0, r0
.LVL505:
	strb	r0, [sp, #46]
	.loc 1 535 0
	ldrb	r7, [sp, #52]	@ zero_extendqisi2
.LVL506:
	ldrb	r0, [sp, #51]	@ zero_extendqisi2
.LVL507:
	ldrb	ip, [sp, #52]	@ zero_extendqisi2
.LVL508:
	ldrb	r6, [sp, #48]	@ zero_extendqisi2
.LVL509:
	rsb	ip, ip, #255
.LVL510:
	add	r0, r0, r0, asl #1
.LVL511:
	ldrb	r0, [r0, r8]	@ zero_extendqisi2
	mul	r0, r7, r0
.LVL512:
	mla	r0, r6, ip, r0
	smull	ip, r7, fp, r0
.LVL513:
	add	r7, r7, r0
	mov	r0, r0, asr #31
	rsb	r0, r0, r7, asr #7
	uxtb	r0, r0
.LVL514:
	strb	r0, [sp, #55]
	.loc 1 536 0
	ldrb	r7, [sp, #52]	@ zero_extendqisi2
.LVL515:
	ldrb	r0, [sp, #51]	@ zero_extendqisi2
.LVL516:
	ldrb	ip, [sp, #52]	@ zero_extendqisi2
.LVL517:
	ldrb	r6, [sp, #47]	@ zero_extendqisi2
.LVL518:
	rsb	ip, ip, #255
.LVL519:
	add	r0, r0, r0, asl #1
.LVL520:
	add	r0, r0, r8
	ldrb	r0, [r0, #1]	@ zero_extendqisi2
	mul	r0, r7, r0
.LVL521:
	mla	r0, r6, ip, r0
	smull	r6, r7, fp, r0
.LVL522:
	add	r7, r7, r0
	mov	r0, r0, asr #31
	rsb	r0, r0, r7, asr #7
	uxtb	r0, r0
.LVL523:
	strb	r0, [sp, #54]
	.loc 1 537 0
	ldrb	r7, [sp, #52]	@ zero_extendqisi2
.LVL524:
	ldrb	r0, [sp, #51]	@ zero_extendqisi2
.LVL525:
	ldrb	ip, [sp, #52]	@ zero_extendqisi2
.LVL526:
	ldrb	r6, [sp, #46]	@ zero_extendqisi2
.LVL527:
	rsb	ip, ip, #255
.LVL528:
	add	r0, r0, r0, asl #1
.LVL529:
	add	r0, r0, r8
	ldrb	r0, [r0, #2]	@ zero_extendqisi2
	mul	r0, r7, r0
.LVL530:
	mla	r0, r6, ip, r0
	smull	ip, r7, fp, r0
.LVL531:
	add	r7, r7, r0
	mov	r0, r0, asr #31
	rsb	r0, r0, r7, asr #7
	uxtb	r0, r0
.LVL532:
	strb	r0, [sp, #53]
	.loc 1 539 0
	ldrb	r6, [sp, #55]	@ zero_extendqisi2
.LVL533:
	ldrb	ip, [sp, #54]	@ zero_extendqisi2
.LVL534:
	ldrb	r0, [sp, #53]	@ zero_extendqisi2
.LVL535:
	mov	r6, r6, lsr #3
.LVL536:
	mov	ip, ip, lsr #2
.LVL537:
	mov	ip, ip, asl #5
	orr	ip, ip, r6, asl #11
	orr	ip, ip, r0, lsr #3
	strh	ip, [r1, #0]	@ movhi
	.loc 1 540 0
	b	.L99
.LVL538:
.L100:
	.loc 1 542 0
	and	ip, r0, #3840
	mov	ip, ip, lsr #4
.LVL539:
	strb	ip, [sp, #48]
	.loc 1 543 0
	and	ip, r0, #240
.LVL540:
	strb	ip, [sp, #47]
	.loc 1 544 0
	mov	r0, r0, asl #4
.LVL541:
	uxtb	r0, r0
.LVL542:
	strb	r0, [sp, #46]
	.loc 1 545 0
	ldrb	r7, [sp, #52]	@ zero_extendqisi2
.LVL543:
	ldrb	r0, [sp, #51]	@ zero_extendqisi2
.LVL544:
	ldrb	ip, [sp, #52]	@ zero_extendqisi2
.LVL545:
	ldrb	r6, [sp, #48]	@ zero_extendqisi2
.LVL546:
	rsb	ip, ip, #255
.LVL547:
	add	r0, r0, r0, asl #1
.LVL548:
	ldrb	r0, [r0, r8]	@ zero_extendqisi2
	mul	r0, r7, r0
.LVL549:
	mla	r0, r6, ip, r0
	smull	r6, r7, fp, r0
.LVL550:
	add	r7, r7, r0
	mov	r0, r0, asr #31
	rsb	r0, r0, r7, asr #7
	uxtb	r0, r0
.LVL551:
	strb	r0, [sp, #55]
	.loc 1 546 0
	ldrb	r7, [sp, #52]	@ zero_extendqisi2
.LVL552:
	ldrb	r0, [sp, #51]	@ zero_extendqisi2
.LVL553:
	ldrb	ip, [sp, #52]	@ zero_extendqisi2
.LVL554:
	ldrb	r6, [sp, #47]	@ zero_extendqisi2
.LVL555:
	rsb	ip, ip, #255
.LVL556:
	add	r0, r0, r0, asl #1
.LVL557:
	add	r0, r0, r8
	ldrb	r0, [r0, #1]	@ zero_extendqisi2
	mul	r0, r7, r0
.LVL558:
	mla	r0, r6, ip, r0
	smull	ip, r7, fp, r0
.LVL559:
	add	r7, r7, r0
	mov	r0, r0, asr #31
	rsb	r0, r0, r7, asr #7
	uxtb	r0, r0
.LVL560:
	strb	r0, [sp, #54]
	.loc 1 547 0
	ldrb	r7, [sp, #52]	@ zero_extendqisi2
.LVL561:
	ldrb	r0, [sp, #51]	@ zero_extendqisi2
.LVL562:
	ldrb	ip, [sp, #52]	@ zero_extendqisi2
.LVL563:
	ldrb	r6, [sp, #46]	@ zero_extendqisi2
.LVL564:
	rsb	ip, ip, #255
.LVL565:
	add	r0, r0, r0, asl #1
.LVL566:
	add	r0, r0, r8
	ldrb	r0, [r0, #2]	@ zero_extendqisi2
	mul	r0, r7, r0
.LVL567:
	mla	r0, r6, ip, r0
	smull	r6, r7, fp, r0
.LVL568:
	add	r7, r7, r0
	mov	r0, r0, asr #31
	rsb	r0, r0, r7, asr #7
	uxtb	r0, r0
.LVL569:
	strb	r0, [sp, #53]
	.loc 1 549 0
	mvn	r7, #0
	strb	r7, [sp, #52]
.LVL570:
	.loc 1 550 0
	ldrb	r7, [sp, #52]	@ zero_extendqisi2
.LVL571:
	ldrb	r6, [sp, #55]	@ zero_extendqisi2
.LVL572:
	ldrb	r0, [sp, #54]	@ zero_extendqisi2
.LVL573:
	ldrb	ip, [sp, #53]	@ zero_extendqisi2
.LVL574:
	mov	r7, r7, lsr #4
.LVL575:
	mov	r6, r6, lsr #4
.LVL576:
	mov	r6, r6, asl #8
	orr	r6, r6, r7, asl #12
	orr	r6, r6, ip, lsr #4
	and	r0, r0, #240
.LVL577:
	orr	r0, r6, r0
	strh	r0, [r1, #0]	@ movhi
	.loc 1 551 0
	b	.L99
.LVL578:
.L101:
	.loc 1 553 0
	and	ip, r0, #31744
	mov	ip, ip, lsr #7
.LVL579:
	strb	ip, [sp, #48]
	.loc 1 554 0
	and	ip, r0, #992
.LVL580:
	mov	ip, ip, lsr #2
.LVL581:
	strb	ip, [sp, #47]
	.loc 1 555 0
	mov	r0, r0, asl #3
.LVL582:
	uxtb	r0, r0
.LVL583:
	strb	r0, [sp, #46]
	.loc 1 556 0
	ldrb	r7, [sp, #52]	@ zero_extendqisi2
.LVL584:
	ldrb	r0, [sp, #51]	@ zero_extendqisi2
.LVL585:
	ldrb	ip, [sp, #52]	@ zero_extendqisi2
.LVL586:
	ldrb	r6, [sp, #48]	@ zero_extendqisi2
.LVL587:
	rsb	ip, ip, #255
.LVL588:
	add	r0, r0, r0, asl #1
.LVL589:
	ldrb	r0, [r0, r8]	@ zero_extendqisi2
	mul	r0, r7, r0
.LVL590:
	mla	r0, r6, ip, r0
	smull	ip, r7, fp, r0
.LVL591:
	add	r7, r7, r0
	mov	r0, r0, asr #31
	rsb	r0, r0, r7, asr #7
	uxtb	r0, r0
.LVL592:
	strb	r0, [sp, #55]
	.loc 1 557 0
	ldrb	r7, [sp, #52]	@ zero_extendqisi2
.LVL593:
	ldrb	r0, [sp, #51]	@ zero_extendqisi2
.LVL594:
	ldrb	ip, [sp, #52]	@ zero_extendqisi2
.LVL595:
	ldrb	r6, [sp, #47]	@ zero_extendqisi2
.LVL596:
	rsb	ip, ip, #255
.LVL597:
	add	r0, r0, r0, asl #1
.LVL598:
	add	r0, r0, r8
	ldrb	r0, [r0, #1]	@ zero_extendqisi2
	mul	r0, r7, r0
.LVL599:
	mla	r0, r6, ip, r0
	smull	r6, r7, fp, r0
.LVL600:
	add	r7, r7, r0
	mov	r0, r0, asr #31
	rsb	r0, r0, r7, asr #7
	uxtb	r0, r0
.LVL601:
	strb	r0, [sp, #54]
	.loc 1 558 0
	ldrb	r7, [sp, #52]	@ zero_extendqisi2
.LVL602:
	ldrb	r0, [sp, #51]	@ zero_extendqisi2
.LVL603:
	ldrb	ip, [sp, #52]	@ zero_extendqisi2
.LVL604:
	ldrb	r6, [sp, #46]	@ zero_extendqisi2
.LVL605:
	rsb	ip, ip, #255
.LVL606:
	add	r0, r0, r0, asl #1
.LVL607:
	add	r0, r0, r8
	ldrb	r0, [r0, #2]	@ zero_extendqisi2
	mul	r0, r7, r0
.LVL608:
	mla	r0, r6, ip, r0
	smull	ip, r7, fp, r0
.LVL609:
	add	r7, r7, r0
	mov	r0, r0, asr #31
	rsb	r0, r0, r7, asr #7
	uxtb	r0, r0
.LVL610:
	strb	r0, [sp, #53]
	.loc 1 560 0
	mvn	r0, #0
.LVL611:
	strb	r0, [sp, #52]
.LVL612:
	.loc 1 561 0
	ldrb	r7, [sp, #52]	@ zero_extendqisi2
.LVL613:
	ldrb	r6, [sp, #55]	@ zero_extendqisi2
.LVL614:
	ldrb	ip, [sp, #54]	@ zero_extendqisi2
.LVL615:
	ldrb	r0, [sp, #53]	@ zero_extendqisi2
.LVL616:
	mov	r7, r7, lsr #7
.LVL617:
	mov	r6, r6, lsr #3
.LVL618:
	mov	r6, r6, asl #10
	orr	r6, r6, r7, asl #15
	mov	ip, ip, lsr #3
.LVL619:
	orr	r6, r6, r0, lsr #3
	orr	ip, r6, ip, asl #5
	strh	ip, [r1, #0]	@ movhi
.LVL620:
.L99:
	.loc 1 604 0
	add	r4, r4, #1
.LVL621:
	uxth	r4, r4
.LVL622:
	.loc 1 606 0
	ldrb	r1, [sp, #49]	@ zero_extendqisi2
.LVL623:
	add	r1, r1, #1
.LVL624:
	uxtb	r1, r1
.LVL625:
	strb	r1, [sp, #49]
.LVL626:
.L95:
	.loc 1 482 0
	ldrb	r1, [sp, #50]	@ zero_extendqisi2
.LVL627:
	add	r1, sl, r1
.LVL628:
	uxtb	r1, r1
.LVL629:
	strb	r1, [sp, #50]
	ldrb	r1, [sp, #50]	@ zero_extendqisi2
.LVL630:
	add	r0, r3, #1
.LVL631:
	uxth	r0, r0
.LVL632:
	cmp	r1, r2
	bgt	.L105
	mov	r3, r0
	b	.L106
.LVL633:
.L105:
	mov	r7, sl
	mov	r6, r3
	b	.L92
.LVL634:
.L125:
	mov	r7, sl
.LVL635:
.L92:
	.loc 1 609 0
	ldr	r1, [sp, #24]
	add	r3, r1, #1
.LVL636:
	uxth	r3, r3
	str	r3, [sp, #24]
	.loc 1 476 0
	mov	r5, r3
	ldr	r2, [sp, #32]
	ldr	sl, [sp, #8]
	cmp	r4, r2
	cmpls	r3, sl
	bls	.L107
.LVL637:
	b	.L44
.LVL638:
.L6:
	mov	ip, #0
.LVL639:
	str	ip, [sp, #24]
.LVL640:
.L44:
	.loc 1 616 0
	ldr	r0, [sp, #104]
.LVL641:
	ldr	r1, [sp, #24]
	cmp	r0, r1
	bcs	.L108
	mov	r0, r0, asl #3
	mov	r1, r7
	bl	__aeabi_uidiv
.LVL642:
	mov	r0, r0, asl #1
	b	.L80
.LVL643:
.L13:
	mov	r2, #0
.LVL644:
	str	r2, [sp, #24]
.LVL645:
.L108:
	ldr	r3, [sp, #24]
.LVL646:
	sub	r0, r3, #2
.LVL647:
.L80:
	.loc 1 617 0
	add	sp, sp, #60
	ldmfd	sp!, {r4, r5, r6, r7, r8, r9, sl, fp, pc}
	.cfi_endproc
.LFE0:
	.fnend
	.size	fpt_convert, .-fpt_convert
	.align	2
	.global	fpt_convertPalette
	.type	fpt_convertPalette, %function
fpt_convertPalette:
	.fnstart
.LFB1:
	.loc 1 632 0
	.cfi_startproc
	@ args = 4, pretend = 0, frame = 0
	@ frame_needed = 0, uses_anonymous_args = 0
	@ link register save eliminated.
.LVL648:
	stmfd	sp!, {r4, r5, r6, r7, r8, r9, sl}
	.save {r4, r5, r6, r7, r8, r9, sl}
.LCFI2:
	.cfi_def_cfa_offset 28
	ldrh	r4, [sp, #28]
	.cfi_offset 10, -4
	.cfi_offset 9, -8
	.cfi_offset 8, -12
	.cfi_offset 7, -16
	.cfi_offset 6, -20
	.cfi_offset 5, -24
	.cfi_offset 4, -28
.LVL649:
	.loc 1 637 0
	ldr	ip, [r0, #44]
.LVL650:
	.loc 1 639 0
	cmp	r1, #3
	bne	.L131
	.loc 1 640 0
	cmp	r4, #0
.LVL651:
	ble	.L131
	mov	r5, #0
	mov	r1, r5
.LVL652:
	.loc 1 642 0
	mov	r8, #-16777216
.LVL653:
.L130:
	ldrh	r6, [r0, #22]
	cmp	r6, r1
	bgt	.L128
	mov	r7, r8
	b	.L129
.L128:
	.loc 1 644 0
	ldrb	r7, [ip, r1]	@ zero_extendqisi2
	mov	r7, r7, asl #24
.LVL654:
.L129:
	.loc 1 632 0
	add	r6, r3, r5
	.loc 1 647 0
	ldrb	sl, [r3, r5]	@ zero_extendqisi2
	ldrb	r9, [r6, #1]	@ zero_extendqisi2
	mov	r9, r9, asl #8
	add	r9, r9, sl, asl #16
	ldrb	sl, [r6, #2]	@ zero_extendqisi2
	add	r6, r9, sl
	add	r6, r6, r7
	str	r6, [r2, r1, asl #2]
	.loc 1 640 0
	add	r1, r1, #1
	add	r5, r5, #3
	cmp	r4, r1
	bgt	.L130
.LVL655:
.L131:
	.loc 1 651 0
	ldmfd	sp!, {r4, r5, r6, r7, r8, r9, sl}
	bx	lr
	.cfi_endproc
.LFE1:
	.fnend
	.size	fpt_convertPalette, .-fpt_convertPalette
	.align	2
	.global	fpt_convertToBigEndian
	.type	fpt_convertToBigEndian, %function
fpt_convertToBigEndian:
	.fnstart
.LFB2:
	.loc 1 655 0
	.cfi_startproc
	@ args = 16, pretend = 0, frame = 32
	@ frame_needed = 0, uses_anonymous_args = 0
.LVL656:
	stmfd	sp!, {r4, r5, r6, r7, r8, r9, sl, fp, lr}
	.save {r4, r5, r6, r7, r8, r9, sl, fp, lr}
.LCFI3:
	.cfi_def_cfa_offset 36
	.pad #36
	sub	sp, sp, #36
.LCFI4:
	.cfi_def_cfa_offset 72
	ldrb	sl, [sp, #80]	@ zero_extendqisi2
	.cfi_offset 14, -4
	.cfi_offset 11, -8
	.cfi_offset 10, -12
	.cfi_offset 9, -16
	.cfi_offset 8, -20
	.cfi_offset 7, -24
	.cfi_offset 6, -28
	.cfi_offset 5, -32
	.cfi_offset 4, -36
.LVL657:
	.loc 1 663 0
	str	r1, [sp, #4]
	.loc 1 664 0
	orr	r2, r2, #134217728
.LVL658:
	str	r2, [sp, #0]
	.loc 1 667 0
	movw	r2, #:lower16:gdd_info
	movt	r2, #:upper16:gdd_info
	ldr	r1, [sp, #72]
.LVL659:
	add	r2, r2, r1, asl #3
	add	r2, r2, #1004
	ldrh	r1, [r2, #0]
	ldrh	r2, [sp, #76]
	rsb	r2, r2, r1
	uxth	r2, r2
	str	r2, [sp, #28]
	.loc 1 671 0
	cmp	r3, #0
.LVL660:
	str	r3, [sp, #24]
	beq	.L144
.LVL661:
	mov	r5, #0
	mov	r4, r5
.LVL662:
	str	r5, [sp, #12]
	mov	r7, r5
.LVL663:
	.loc 1 673 0
	sub	r8, r3, #1
	.loc 1 676 0
	rsb	r6, sl, #8
	str	r5, [sp, #16]
	.loc 1 682 0
	movw	fp, #:lower16:conf
	movt	fp, #:upper16:conf
.LVL664:
.L143:
	.loc 1 673 0
	cmp	r5, r8
	bne	.L135
	.loc 1 674 0
	ldr	r1, [sp, #12]
	mov	r0, r1, asl #3
.LVL665:
	mov	r1, sl
	bl	__aeabi_idiv
	uxth	r0, r0
	str	r0, [sp, #20]
.LVL666:
.L135:
	.loc 1 676 0
	cmp	r6, #0
	blt	.L136
	add	r2, r7, #1
	uxth	r2, r2
.LVL667:
	mov	r9, #0
	ldr	r0, [sp, #16]
.LVL668:
	mov	r3, r0
.LVL669:
	.loc 1 678 0
	ldr	ip, [sp, #84]
	ldr	r1, [sp, #20]
	rsb	ip, r1, ip
	str	ip, [sp, #8]
.LVL670:
.L142:
	.loc 1 676 0
	sub	r7, r2, #1
	uxth	r7, r7
.LVL671:
	.loc 1 677 0
	cmp	r5, r8
	bne	.L137
	.loc 1 678 0
	ldr	ip, [sp, #8]
	cmp	r0, ip
	beq	.L136
.L137:
	.loc 1 682 0
	ldr	r1, [fp, #0]
	ldrb	ip, [r1, #3]	@ zero_extendqisi2
	cmp	ip, #1
	bne	.L138
	.loc 1 684 0
	ldrh	ip, [r1, #6]
	cmp	ip, r7
	bls	.L139
	.loc 1 687 0
	add	r4, r4, #1
.LVL672:
	uxth	r4, r4
.LVL673:
	.loc 1 688 0
	b	.L140
.L139:
	.loc 1 691 0
	ldrh	r1, [r1, #10]
	add	r1, r1, ip
	cmp	r1, r7
	beq	.L144
	.loc 1 692 0
	rsb	r4, ip, r7
.LVL674:
	uxth	r4, r4
.LVL675:
.L138:
	.loc 1 695 0
	ldr	ip, [sp, #4]
	ldrb	r1, [ip, r5]	@ zero_extendqisi2
	mov	r1, r1, asl r9
	uxtb	r1, r1
	mov	r1, r1, asr r6
	.loc 1 697 0
	ldr	ip, [sp, #0]
	strb	r1, [ip, r4]
	.loc 1 698 0
	add	r4, r4, #1
.LVL676:
	uxth	r4, r4
.LVL677:
	.loc 1 700 0
	add	r0, r0, #1
.LVL678:
	uxtb	r0, r0
.LVL679:
.L140:
	add	r3, sl, r3
.LVL680:
	uxth	r3, r3
.LVL681:
	.loc 1 676 0
	mov	r9, r3
	add	r1, r2, #1
	uxth	r1, r1
.LVL682:
	cmp	r3, r6
	bgt	.L141
	mov	r2, r1
	b	.L142
.LVL683:
.L141:
	mov	r7, r2
.LVL684:
.L136:
	.loc 1 671 0
	ldr	r0, [sp, #12]
.LVL685:
	add	r3, r0, #1
.LVL686:
	uxth	r3, r3
	str	r3, [sp, #12]
	mov	r5, r3
	ldr	r1, [sp, #28]
	ldr	r2, [sp, #24]
	cmp	r1, r4
	movcc	r3, #0
	movcs	r3, #1
	cmp	r5, r2
	movcs	r3, #0
	cmp	r3, #0
	bne	.L143
.LVL687:
.L144:
	.loc 1 706 0
	add	sp, sp, #36
	ldmfd	sp!, {r4, r5, r6, r7, r8, r9, sl, fp, pc}
	.cfi_endproc
.LFE2:
	.fnend
	.size	fpt_convertToBigEndian, .-fpt_convertToBigEndian
	.align	2
	.global	png_get_info
	.type	png_get_info, %function
png_get_info:
	.fnstart
.LFB4:
	.loc 1 889 0
	.cfi_startproc
	@ args = 0, pretend = 0, frame = 24
	@ frame_needed = 0, uses_anonymous_args = 0
.LVL688:
	stmfd	sp!, {r4, lr}
	.save {r4, lr}
.LCFI5:
	.cfi_def_cfa_offset 8
	.pad #24
	sub	sp, sp, #24
.LCFI6:
	.cfi_def_cfa_offset 32
	str	r0, [sp, #4]
	mov	r4, r1
	.cfi_offset 14, -4
	.cfi_offset 4, -8
	str	r2, [sp, #0]
	.loc 1 897 0
	bl	memory_management_init
.LVL689:
	.loc 1 898 0
	ldr	r2, [sp, #0]
	cmp	r2, #1
	bne	.L148
	.loc 1 902 0
	movw	r3, #:lower16:fio_buffer
	movt	r3, #:upper16:fio_buffer
	mov	r2, #0
	str	r2, [r3, #4]
	.loc 1 903 0
	str	r4, [r3, #0]
	.loc 1 905 0
	movw	r3, #:lower16:Image_data_count
	movt	r3, #:upper16:Image_data_count
	ldrh	r3, [r3, #0]
	cmp	r3, #1000
	.loc 1 907 0
	movw	r3, #:lower16:Image_data_count
	movt	r3, #:upper16:Image_data_count
	.loc 1 905 0
	bne	.L149
	.loc 1 907 0
	strh	r2, [r3, #0]	@ movhi
	b	.L150
.L149:
	.loc 1 911 0
	mov	r2, #0	@ movhi
	strh	r2, [r3, #0]	@ movhi
	.loc 1 912 0
	movw	r3, #:lower16:Buff_size
	movt	r3, #:upper16:Buff_size
	mov	r2, #200	@ movhi
	strh	r2, [r3, #0]	@ movhi
	.loc 1 913 0
	movw	r3, #:lower16:Number_of_Buff
	movt	r3, #:upper16:Number_of_Buff
	mov	r2, #1	@ movhi
	strh	r2, [r3, #0]	@ movhi
	.loc 1 914 0
	movw	r3, #:lower16:IO_usrfunc
	movt	r3, #:upper16:IO_usrfunc
	movw	r2, #:lower16:buffer_rw
	movt	r2, #:upper16:buffer_rw
	str	r2, [r3, #0]
.L150:
	.loc 1 916 0
	mov	r0, #24
	bl	fpt_malloc
	movw	r3, #:lower16:conf
	movt	r3, #:upper16:conf
	str	r0, [r3, #0]
	.loc 1 917 0
	cmp	r0, #0
	beq	.L151
	.loc 1 918 0
	mov	r3, #1
	strb	r3, [r0, #4]
	.loc 1 919 0
	movw	r3, #:lower16:Buff_size
	movt	r3, #:upper16:Buff_size
	ldrh	r2, [r3, #0]
	movw	r3, #:lower16:Number_of_Buff
	movt	r3, #:upper16:Number_of_Buff
	ldrh	r0, [r3, #0]
	mul	r0, r0, r2
	bl	fpt_malloc
	movw	r3, #:lower16:Buff_start_addr
	movt	r3, #:upper16:Buff_start_addr
	str	r0, [r3, #0]
.LVL690:
	.loc 1 920 0
	cmp	r0, #0
	beq	.L151
	.loc 1 921 0
	movw	r3, #:lower16:DataPtr
	movt	r3, #:upper16:DataPtr
	str	r0, [r3, #0]
	.loc 1 922 0
	bl	IO_buff_init
.LVL691:
	uxth	r0, r0
	cmp	r0, #0
	bne	.L152
	b	.L153
.L148:
	.loc 1 926 0
	cmp	r4, #0
	bne	.L154
	mvn	r0, #9
	b	.L155
.L154:
	.loc 1 927 0
	mov	r0, r4
	bl	fpt_fopen
	movw	r3, #:lower16:.LANCHOR0
	movt	r3, #:upper16:.LANCHOR0
	str	r0, [r3, #0]
	.loc 1 928 0
	cmp	r0, #0
	beq	.L151
	.loc 1 930 0
	mov	r0, #24
	bl	fpt_malloc
	movw	r3, #:lower16:conf
	movt	r3, #:upper16:conf
	str	r0, [r3, #0]
	.loc 1 931 0
	cmp	r0, #0
	beq	.L151
	.loc 1 932 0
	mov	r3, #0
	strb	r3, [r0, #4]
	.loc 1 934 0
	movw	r3, #:lower16:.LANCHOR0
	movt	r3, #:upper16:.LANCHOR0
	add	r0, sp, #16
	mov	r1, #8
	mov	r2, #1
	ldr	r3, [r3, #0]
	bl	fpt_fread
	.loc 1 936 0
	cmp	r0, #8
	bne	.L156
	.loc 1 941 0
	add	r0, sp, #16
	mov	r1, #0
	mov	r2, #8
	bl	png_sig_cmp
	cmp	r0, #0
	bne	.L156
	.loc 1 945 0
	movw	r3, #:lower16:.LANCHOR0
	movt	r3, #:upper16:.LANCHOR0
	ldr	r3, [r3, #0]
	mov	r2, #0
	str	r2, [r3, #4]
.L153:
	.loc 1 948 0
	movw	r0, #:lower16:.LC0
	movt	r0, #:upper16:.LC0
	mov	r1, #0
	mov	r2, r1
	mov	r3, r1
	bl	png_create_read_struct
	.loc 1 949 0
	cmp	r0, #0
	str	r0, [sp, #12]
	beq	.L156
	.loc 1 950 0
	bl	png_create_info_struct
	.loc 1 951 0
	cmp	r0, #0
	str	r0, [sp, #8]
	beq	.L156
	.loc 1 952 0
	ldr	r0, [sp, #12]
	bl	setjmp
	cmp	r0, #0
	beq	.L157
	.loc 1 954 0
	ldr	r0, [sp, #12]
	ldr	r1, [r0, #184]
	bl	png_free
	.loc 1 955 0
	mov	r3, #0
	ldr	r2, [sp, #12]
	str	r3, [r2, #184]
	.loc 1 956 0
	ldr	r0, [sp, #12]
	bl	png_destroy_struct
	mvn	r0, #11
	.loc 1 959 0
	b	.L155
.L157:
	.loc 1 962 0
	ldr	r3, [sp, #0]
	cmp	r3, #1
	beq	.L158
	.loc 1 963 0
	movw	r3, #:lower16:.LANCHOR0
	movt	r3, #:upper16:.LANCHOR0
	ldr	r0, [sp, #12]
	ldr	r1, [r3, #0]
	bl	png_init_io
.L158:
	.loc 1 966 0
	ldr	r0, [sp, #12]
	ldr	r1, [sp, #8]
	bl	png_read_info
	cmn	r0, #1
	beq	.L152
	.loc 1 968 0
	ldr	r2, [sp, #0]
	cmp	r2, #1
	beq	.L159
	.loc 1 969 0
	movw	r3, #:lower16:.LANCHOR0
	movt	r3, #:upper16:.LANCHOR0
	ldr	r0, [r3, #0]
	bl	fpt_fclose
	b	.L160
.L159:
	.loc 1 971 0
	bl	IO_buff_end
.L160:
	.loc 1 973 0
	ldr	r2, [sp, #8]
	ldr	r3, [r2, #0]
	ldr	r2, [sp, #4]
	str	r3, [r2, #0]
	.loc 1 974 0
	ldr	r2, [sp, #8]
	ldr	r3, [r2, #4]
	ldr	r2, [sp, #4]
	str	r3, [r2, #4]
	.loc 1 975 0
	ldr	r2, [sp, #8]
	ldr	r3, [r2, #12]
	ldr	r2, [sp, #4]
	str	r3, [r2, #8]
	.loc 1 976 0
	ldr	r2, [sp, #8]
	ldrb	r3, [r2, #24]	@ zero_extendqisi2
	ldr	r2, [sp, #4]
	strb	r3, [r2, #12]
	.loc 1 977 0
	ldr	r2, [sp, #8]
	ldrb	r3, [r2, #29]	@ zero_extendqisi2
	ldr	r2, [sp, #4]
	strb	r3, [r2, #13]
	.loc 1 978 0
	ldr	r2, [sp, #8]
	ldrb	r3, [r2, #25]	@ zero_extendqisi2
	ldr	r2, [sp, #4]
	strb	r3, [r2, #14]
	.loc 1 979 0
	ldr	r2, [sp, #8]
	ldrb	r3, [r2, #30]	@ zero_extendqisi2
	ldr	r2, [sp, #4]
	strb	r3, [r2, #15]
	.loc 1 980 0
	ldr	r2, [sp, #8]
	ldrb	r3, [r2, #28]	@ zero_extendqisi2
	ldr	r2, [sp, #4]
	strb	r3, [r2, #16]
	.loc 1 981 0
	ldr	r2, [sp, #8]
	ldr	r3, [r2, #16]
	ldr	r2, [sp, #4]
	str	r3, [r2, #20]
	.loc 1 982 0
	ldr	r3, [sp, #8]
	ldrh	r3, [r3, #20]
	strh	r3, [r2, #24]	@ movhi
	mov	r0, #0
	.loc 1 983 0
	b	.L155
.LVL692:
.L151:
	mvn	r0, #10
.LVL693:
	b	.L155
.L152:
	mvn	r0, #0
	b	.L155
.L156:
	mvn	r0, #3
.L155:
	.loc 1 984 0
	add	sp, sp, #24
	ldmfd	sp!, {r4, pc}
	.cfi_endproc
.LFE4:
	.fnend
	.size	png_get_info, .-png_get_info
	.align	2
	.global	png_decode
	.type	png_decode, %function
png_decode:
	.fnstart
.LFB3:
	.loc 1 722 0
	.cfi_startproc
	@ args = 8, pretend = 0, frame = 32
	@ frame_needed = 0, uses_anonymous_args = 0
.LVL694:
	stmfd	sp!, {r4, r5, lr}
	.save {r4, r5, lr}
.LCFI7:
	.cfi_def_cfa_offset 12
	.pad #52
	sub	sp, sp, #52
.LCFI8:
	.cfi_def_cfa_offset 64
	str	r1, [sp, #28]
	mov	r4, r2
	.cfi_offset 14, -4
	.cfi_offset 5, -8
	.cfi_offset 4, -12
	str	r3, [sp, #20]
	ldr	r5, [sp, #68]
	ldrh	r2, [sp, #64]
.LVL695:
	str	r2, [sp, #24]
	.loc 1 733 0
	cmp	r0, #0
.LVL696:
	str	r0, [sp, #16]
	blt	.L163
.LVL697:
	.loc 1 735 0
	movw	r3, #:lower16:gdd_const
.LVL698:
	movt	r3, #:upper16:gdd_const
	ldrb	r3, [r3, #0]	@ zero_extendqisi2
	cmp	r0, r3
	bge	.L163
	movw	r3, #:lower16:gdd_info
	movt	r3, #:upper16:gdd_info
	add	r3, r3, r0, asl #3
	ldrb	r3, [r3, #1006]	@ zero_extendqisi2
	cmp	r3, #0
	cmpne	r3, #7
	beq	.L164
	cmp	r3, #4
	beq	.L164
	cmp	r3, #6
	beq	.L164
	cmp	r3, #9
	bne	.L163
.L164:
	.loc 1 741 0
	movw	r3, #:lower16:gdd_info
	movt	r3, #:upper16:gdd_info
	ldr	r0, [sp, #16]
	add	r3, r3, r0, asl #3
	add	r3, r3, #1004
	ldrh	r3, [r3, #0]
	ldr	r2, [sp, #20]
	cmp	r3, r2
	bhi	.L165
	mvn	r0, #2
	b	.L166
.L165:
	.loc 1 743 0
	bl	memory_management_init
.LVL699:
	.loc 1 744 0
	movw	r3, #:lower16:conf
	movt	r3, #:upper16:conf
	str	r5, [r3, #0]
	.loc 1 746 0
	ldrb	r3, [r5, #4]	@ zero_extendqisi2
	cmp	r3, #1
	bne	.L167
	.loc 1 750 0
	movw	r3, #:lower16:fio_buffer
	movt	r3, #:upper16:fio_buffer
	mov	r2, #0
	str	r2, [r3, #4]
	.loc 1 751 0
	str	r4, [r3, #0]
	.loc 1 753 0
	movw	r3, #:lower16:Image_data_count
	movt	r3, #:upper16:Image_data_count
	ldrh	r3, [r3, #0]
	cmp	r3, #1000
	.loc 1 755 0
	movw	r3, #:lower16:Image_data_count
	movt	r3, #:upper16:Image_data_count
	.loc 1 753 0
	bne	.L168
	.loc 1 755 0
	mov	r4, #0	@ movhi
.LVL700:
	strh	r4, [r3, #0]	@ movhi
	b	.L169
.LVL701:
.L168:
	.loc 1 759 0
	mov	r5, #0	@ movhi
.LVL702:
	strh	r5, [r3, #0]	@ movhi
	.loc 1 760 0
	movw	r3, #:lower16:Buff_size
	movt	r3, #:upper16:Buff_size
	mov	r0, #200	@ movhi
	strh	r0, [r3, #0]	@ movhi
	.loc 1 761 0
	movw	r3, #:lower16:Number_of_Buff
	movt	r3, #:upper16:Number_of_Buff
	mov	r2, #1	@ movhi
	strh	r2, [r3, #0]	@ movhi
	.loc 1 762 0
	movw	r3, #:lower16:IO_usrfunc
	movt	r3, #:upper16:IO_usrfunc
	movw	r2, #:lower16:buffer_rw
	movt	r2, #:upper16:buffer_rw
	str	r2, [r3, #0]
.LVL703:
.L169:
	.loc 1 764 0
	movw	r3, #:lower16:Buff_size
	movt	r3, #:upper16:Buff_size
	ldrh	r2, [r3, #0]
	movw	r3, #:lower16:Number_of_Buff
	movt	r3, #:upper16:Number_of_Buff
	ldrh	r0, [r3, #0]
	mul	r0, r0, r2
	bl	fpt_malloc
	movw	r3, #:lower16:Buff_start_addr
	movt	r3, #:upper16:Buff_start_addr
	str	r0, [r3, #0]
.LVL704:
	.loc 1 765 0
	cmp	r0, #0
	beq	.L170
	.loc 1 766 0
	movw	r3, #:lower16:DataPtr
	movt	r3, #:upper16:DataPtr
	str	r0, [r3, #0]
	.loc 1 767 0
	bl	IO_buff_init
.LVL705:
	uxth	r0, r0
	cmp	r0, #0
	bne	.L171
	b	.L172
.LVL706:
.L167:
	.loc 1 771 0
	cmp	r4, #0
	bne	.L173
	mvn	r0, #9
	b	.L166
.L173:
	.loc 1 772 0
	mov	r0, r4
	bl	fpt_fopen
	mov	r3, r0
	movw	r2, #:lower16:.LANCHOR0
	movt	r2, #:upper16:.LANCHOR0
	str	r0, [r2, #4]
	.loc 1 773 0
	cmp	r0, #0
	beq	.L170
	.loc 1 774 0
	add	r0, sp, #40
	mov	r1, #8
	mov	r2, #1
	bl	fpt_fread
	.loc 1 776 0
	cmp	r0, #8
	bne	.L174
	.loc 1 780 0
	add	r0, sp, #40
	mov	r1, #0
	mov	r2, #8
	bl	png_sig_cmp
	cmp	r0, #0
	bne	.L174
	.loc 1 784 0
	movw	r3, #:lower16:.LANCHOR0
	movt	r3, #:upper16:.LANCHOR0
	ldr	r3, [r3, #4]
	mov	r2, #0
	str	r2, [r3, #4]
.LVL707:
.L172:
	.loc 1 786 0
	movw	r0, #:lower16:.LC0
	movt	r0, #:upper16:.LC0
	mov	r1, #0
	mov	r2, r1
	mov	r3, r1
	bl	png_create_read_struct
	str	r0, [sp, #36]
.LVL708:
	.loc 1 787 0
	cmp	r0, #0
	beq	.L170
	.loc 1 788 0
	bl	png_create_info_struct
.LVL709:
	str	r0, [sp, #32]
.LVL710:
	.loc 1 789 0
	cmp	r0, #0
	beq	.L170
	.loc 1 791 0
	ldr	r0, [sp, #36]
.LVL711:
	bl	setjmp
	cmp	r0, #0
	beq	.L175
.LVL712:
	.loc 1 793 0
	ldr	r3, [sp, #36]
	mov	r0, r3
	ldr	r1, [r3, #184]
	bl	png_free
	.loc 1 794 0
	mov	r2, #0
	ldr	r3, [sp, #36]
	str	r2, [r3, #184]
	.loc 1 795 0
	ldr	r0, [sp, #36]
	bl	png_destroy_struct
	mvn	r0, #11
	.loc 1 798 0
	b	.L166
.L175:
	.loc 1 801 0
	movw	r3, #:lower16:conf
	movt	r3, #:upper16:conf
	ldr	r3, [r3, #0]
	ldrb	r3, [r3, #4]	@ zero_extendqisi2
	cmp	r3, #1
	beq	.L176
	.loc 1 803 0
	movw	r3, #:lower16:.LANCHOR0
	movt	r3, #:upper16:.LANCHOR0
	ldr	r0, [sp, #36]
	ldr	r1, [r3, #4]
	bl	png_init_io
.L176:
	.loc 1 806 0
	ldr	r0, [sp, #36]
	ldr	r1, [sp, #32]
	bl	png_read_info
	cmn	r0, #1
	beq	.L171
.LVL713:
	.loc 1 809 0
	ldr	r3, [sp, #36]
	ldr	r1, [r3, #212]
	cmp	r1, #0
	beq	.L171
	ldr	ip, [r3, #216]
	cmp	ip, #0
	beq	.L171
	.loc 1 811 0
	ldr	r2, [sp, #32]
	ldrb	r3, [r2, #28]	@ zero_extendqisi2
	cmp	r3, #1
	beq	.L171
	.loc 1 815 0
	movw	r3, #:lower16:gdd_info
	movt	r3, #:upper16:gdd_info
	ldr	r4, [sp, #16]
.LVL714:
	add	r3, r3, r4, asl #3
	ldrb	r0, [r3, #1006]	@ zero_extendqisi2
	cmp	r0, #0
	bne	.L177
	ldrb	r3, [r2, #25]	@ zero_extendqisi2
	cmp	r3, #3
	bne	.L171
.L177:
	.loc 1 819 0
	movw	r3, #:lower16:conf
	movt	r3, #:upper16:conf
	ldr	r3, [r3, #0]
	ldr	r2, [r3, #20]
	cmp	r2, #0
	beq	.L178
	.loc 1 821 0
	cmp	r0, #0
	bne	.L179
	.loc 1 823 0
	movw	r0, #:lower16:gdd_info
	movt	r0, #:upper16:gdd_info
	ldr	r5, [sp, #16]
	add	r0, r0, r5, asl #3
	add	r0, r0, #1004
	ldrh	r0, [r0, #0]
	ldr	r4, [sp, #24]
	ldr	r5, [sp, #20]
	mla	r0, r0, r4, r5
	cmp	r2, r0
	bhi	.L178
	b	.L180
.LVL715:
.L179:
	.loc 1 825 0
	cmp	r0, #9
	.loc 1 827 0
	movw	r0, #:lower16:gdd_info
	movt	r0, #:upper16:gdd_info
	.loc 1 825 0
	bne	.L181
	.loc 1 827 0
	ldr	r4, [sp, #16]
	add	r0, r0, r4, asl #3
	add	r0, r0, #1004
	ldrh	r0, [r0, #0]
	ldr	r5, [sp, #24]
	ldr	r4, [sp, #20]
	mla	r0, r0, r5, r4
	cmp	r2, r0, asl #2
	bhi	.L178
	b	.L180
.LVL716:
.L181:
	.loc 1 831 0
	ldr	r5, [sp, #16]
	add	r0, r0, r5, asl #3
	add	r0, r0, #1004
	ldrh	r0, [r0, #0]
	ldr	r4, [sp, #24]
	ldr	r5, [sp, #20]
	mla	r0, r0, r4, r5
	cmp	r2, r0, asl #1
	bls	.L180
.LVL717:
.L178:
	.loc 1 836 0
	ldrb	r2, [r3, #3]	@ zero_extendqisi2
	cmp	r2, #1
	bne	.L182
	.loc 1 838 0
	ldrh	r2, [r3, #10]
	cmp	r2, #0
	bne	.L183
	mvn	r0, #5
	b	.L166
.L183:
	.loc 1 839 0
	ldrh	r0, [r3, #12]
	cmp	r0, #0
	bne	.L184
	mvn	r0, #6
	b	.L166
.L184:
	.loc 1 840 0
	ldrh	r0, [r3, #6]
	cmp	r1, r0
	bhi	.L185
	mvn	r0, #7
	b	.L166
.L185:
	.loc 1 841 0
	ldrh	r4, [r3, #8]
	cmp	ip, r4
	bhi	.L186
	mvn	r0, #8
	b	.L166
.L186:
	.loc 1 842 0
	rsb	r1, r0, r1
	cmp	r1, r2
	movcs	r1, r2
	strh	r1, [r3, #10]	@ movhi
	.loc 1 843 0
	movw	r3, #:lower16:conf
	movt	r3, #:upper16:conf
	ldr	r3, [r3, #0]
	ldrh	r2, [r3, #8]
	ldr	r1, [sp, #36]
	ldr	r1, [r1, #216]
	rsb	r2, r2, r1
	ldrh	r1, [r3, #12]
	cmp	r2, r1
	movcs	r2, r1
	strh	r2, [r3, #12]	@ movhi
.L182:
	.loc 1 847 0
	movw	r3, #:lower16:gdd_info
	movt	r3, #:upper16:gdd_info
	ldr	r0, [sp, #16]
	add	r3, r3, r0, asl #3
	ldrb	r3, [r3, #1006]	@ zero_extendqisi2
	cmp	r3, #0
	bne	.L187
	.loc 1 848 0
	ldr	r3, [sp, #32]
	ldrb	r1, [r3, #25]	@ zero_extendqisi2
	ldrh	r2, [r3, #20]
	str	r2, [sp, #0]
	mov	r0, r3
	ldr	r2, [sp, #28]
	ldr	r3, [r3, #16]
	bl	fpt_convertPalette
.L187:
	mov	r4, #0
.LVL718:
	.loc 1 854 0
	mov	r5, r4
	b	.L188
.L189:
	ldr	r2, [sp, #16]
	str	r2, [sp, #0]
	ldr	r3, [sp, #20]
	str	r3, [sp, #4]
	ldr	r0, [sp, #24]
	str	r0, [sp, #8]
	mov	r0, r4
	mov	r2, r5
	ldr	r3, [sp, #32]
	bl	png_read_row2
	.loc 1 851 0
	add	r4, r4, #1
.L188:
	ldr	r1, [sp, #36]
	ldr	r3, [r1, #216]
	cmp	r3, r4
	bhi	.L189
	.loc 1 858 0
	mov	r0, r1
	ldr	r1, [sp, #32]
	bl	png_read_end
	.loc 1 861 0
	add	r0, sp, #36
	add	r1, sp, #32
	mov	r2, #0
	bl	png_destroy_read_struct
	.loc 1 863 0
	movw	r3, #:lower16:conf
	movt	r3, #:upper16:conf
	ldr	r3, [r3, #0]
	ldrb	r3, [r3, #4]	@ zero_extendqisi2
	cmp	r3, #1
	beq	.L190
	.loc 1 865 0
	movw	r3, #:lower16:.LANCHOR0
	movt	r3, #:upper16:.LANCHOR0
	ldr	r0, [r3, #4]
	bl	fpt_fclose
	.loc 1 868 0
	movw	r3, #:lower16:conf
	movt	r3, #:upper16:conf
	ldr	r3, [r3, #0]
	ldrb	r3, [r3, #4]	@ zero_extendqisi2
	cmp	r3, #1
	beq	.L190
	mov	r0, #0
	b	.L166
.L190:
	.loc 1 870 0
	bl	IO_buff_end
	mov	r0, #0
	b	.L166
.LVL719:
.L163:
	mvn	r0, #1
	b	.L166
.LVL720:
.L170:
	mvn	r0, #10
.LVL721:
	b	.L166
.LVL722:
.L171:
	mvn	r0, #0
	b	.L166
.LVL723:
.L174:
	mvn	r0, #3
	b	.L166
.LVL724:
.L180:
	mvn	r0, #4
.LVL725:
.L166:
	.loc 1 873 0
	add	sp, sp, #52
	ldmfd	sp!, {r4, r5, pc}
	.cfi_endproc
.LFE3:
	.fnend
	.size	png_decode, .-png_decode
	.comm	conf,4,4
	.section	.rodata.str1.4,"aMS",%progbits,1
	.align	2
.LC0:
	.ascii	"1.2.35\000"
	.bss
	.align	2
	.set	.LANCHOR0,. + 0
	.type	fpin.7217, %object
	.size	fpin.7217, 4
fpin.7217:
	.space	4
	.type	fpin.7050, %object
	.size	fpin.7050, 4
fpin.7050:
	.space	4
	.text
.Letext0: